
Version1.1.elf:     file format elf32-avr

Sections:
Idx Name          Size      VMA       LMA       File off  Algn
  0 .text         0000100e  00000000  00000000  00000094  2**1
                  CONTENTS, ALLOC, LOAD, READONLY, CODE
  1 .data         00000122  00800060  0000100e  000010a2  2**0
                  CONTENTS, ALLOC, LOAD, DATA
  2 .bss          00000085  00800182  00800182  000011c4  2**0
                  ALLOC
  3 .stab         00000c84  00000000  00000000  000011c4  2**2
                  CONTENTS, READONLY, DEBUGGING
  4 .stabstr      000001b6  00000000  00000000  00001e48  2**0
                  CONTENTS, READONLY, DEBUGGING
  5 .debug_aranges 00000140  00000000  00000000  00002000  2**3
                  CONTENTS, READONLY, DEBUGGING
  6 .debug_info   00000c6b  00000000  00000000  00002140  2**0
                  CONTENTS, READONLY, DEBUGGING
  7 .debug_abbrev 000003c3  00000000  00000000  00002dab  2**0
                  CONTENTS, READONLY, DEBUGGING
  8 .debug_line   000008e5  00000000  00000000  0000316e  2**0
                  CONTENTS, READONLY, DEBUGGING
  9 .debug_frame  000000b4  00000000  00000000  00003a54  2**2
                  CONTENTS, READONLY, DEBUGGING
 10 .debug_str    000001da  00000000  00000000  00003b08  2**0
                  CONTENTS, READONLY, DEBUGGING
 11 .debug_loc    000005b5  00000000  00000000  00003ce2  2**0
                  CONTENTS, READONLY, DEBUGGING
 12 .debug_ranges 00000030  00000000  00000000  00004297  2**0
                  CONTENTS, READONLY, DEBUGGING

Disassembly of section .text:

00000000 <__vectors>:
       0:	12 c0       	rjmp	.+36     	; 0x26 <__ctors_end>
       2:	2c c0       	rjmp	.+88     	; 0x5c <__bad_interrupt>
       4:	2b c0       	rjmp	.+86     	; 0x5c <__bad_interrupt>
       6:	2a c0       	rjmp	.+84     	; 0x5c <__bad_interrupt>
       8:	29 c0       	rjmp	.+82     	; 0x5c <__bad_interrupt>
       a:	28 c0       	rjmp	.+80     	; 0x5c <__bad_interrupt>
       c:	27 c0       	rjmp	.+78     	; 0x5c <__bad_interrupt>
       e:	26 c0       	rjmp	.+76     	; 0x5c <__bad_interrupt>
      10:	25 c0       	rjmp	.+74     	; 0x5c <__bad_interrupt>
      12:	24 c0       	rjmp	.+72     	; 0x5c <__bad_interrupt>
      14:	23 c0       	rjmp	.+70     	; 0x5c <__bad_interrupt>
      16:	84 c1       	rjmp	.+776    	; 0x320 <__vector_11>
      18:	af c1       	rjmp	.+862    	; 0x378 <__vector_12>
      1a:	20 c0       	rjmp	.+64     	; 0x5c <__bad_interrupt>
      1c:	1f c0       	rjmp	.+62     	; 0x5c <__bad_interrupt>
      1e:	1e c0       	rjmp	.+60     	; 0x5c <__bad_interrupt>
      20:	1d c0       	rjmp	.+58     	; 0x5c <__bad_interrupt>
      22:	23 c1       	rjmp	.+582    	; 0x26a <__vector_17>
      24:	1b c0       	rjmp	.+54     	; 0x5c <__bad_interrupt>

00000026 <__ctors_end>:
      26:	11 24       	eor	r1, r1
      28:	1f be       	out	0x3f, r1	; 63
      2a:	cf e5       	ldi	r28, 0x5F	; 95
      2c:	d4 e0       	ldi	r29, 0x04	; 4
      2e:	de bf       	out	0x3e, r29	; 62
      30:	cd bf       	out	0x3d, r28	; 61

00000032 <__do_copy_data>:
      32:	11 e0       	ldi	r17, 0x01	; 1
      34:	a0 e6       	ldi	r26, 0x60	; 96
      36:	b0 e0       	ldi	r27, 0x00	; 0
      38:	ee e0       	ldi	r30, 0x0E	; 14
      3a:	f0 e1       	ldi	r31, 0x10	; 16
      3c:	02 c0       	rjmp	.+4      	; 0x42 <__SREG__+0x3>
      3e:	05 90       	lpm	r0, Z+
      40:	0d 92       	st	X+, r0
      42:	a2 38       	cpi	r26, 0x82	; 130
      44:	b1 07       	cpc	r27, r17
      46:	d9 f7       	brne	.-10     	; 0x3e <__SP_H__>

00000048 <__do_clear_bss>:
      48:	12 e0       	ldi	r17, 0x02	; 2
      4a:	a2 e8       	ldi	r26, 0x82	; 130
      4c:	b1 e0       	ldi	r27, 0x01	; 1
      4e:	01 c0       	rjmp	.+2      	; 0x52 <.do_clear_bss_start>

00000050 <.do_clear_bss_loop>:
      50:	1d 92       	st	X+, r1

00000052 <.do_clear_bss_start>:
      52:	a7 30       	cpi	r26, 0x07	; 7
      54:	b1 07       	cpc	r27, r17
      56:	e1 f7       	brne	.-8      	; 0x50 <.do_clear_bss_loop>
      58:	e9 d4       	rcall	.+2514   	; 0xa2c <main>
      5a:	d7 c7       	rjmp	.+4014   	; 0x100a <_exit>

0000005c <__bad_interrupt>:
      5c:	d1 cf       	rjmp	.-94     	; 0x0 <__vectors>

0000005e <find_blocks>:
      5e:	bf 92       	push	r11
      60:	cf 92       	push	r12
      62:	df 92       	push	r13
      64:	ef 92       	push	r14
      66:	ff 92       	push	r15
      68:	0f 93       	push	r16
      6a:	1f 93       	push	r17
      6c:	cf 93       	push	r28
      6e:	df 93       	push	r29
      70:	7c 01       	movw	r14, r24
      72:	ea 01       	movw	r28, r20
      74:	fc 01       	movw	r30, r24
      76:	80 e0       	ldi	r24, 0x00	; 0
      78:	04 c0       	rjmp	.+8      	; 0x82 <find_blocks+0x24>
      7a:	91 91       	ld	r25, Z+
      7c:	99 23       	and	r25, r25
      7e:	19 f0       	breq	.+6      	; 0x86 <find_blocks+0x28>
      80:	8f 5f       	subi	r24, 0xFF	; 255
      82:	86 17       	cp	r24, r22
      84:	d1 f7       	brne	.-12     	; 0x7a <find_blocks+0x1c>
      86:	c8 2e       	mov	r12, r24
      88:	dd 24       	eor	r13, r13
      8a:	f7 01       	movw	r30, r14
      8c:	ec 0d       	add	r30, r12
      8e:	fd 1d       	adc	r31, r13
      90:	80 81       	ld	r24, Z
      92:	88 23       	and	r24, r24
      94:	09 f0       	breq	.+2      	; 0x98 <find_blocks+0x3a>
      96:	50 c0       	rjmp	.+160    	; 0x138 <find_blocks+0xda>
      98:	a6 01       	movw	r20, r12
      9a:	4f 5f       	subi	r20, 0xFF	; 255
      9c:	5f 4f       	sbci	r21, 0xFF	; 255
      9e:	30 e0       	ldi	r19, 0x00	; 0
      a0:	20 e0       	ldi	r18, 0x00	; 0
      a2:	bb 24       	eor	r11, r11
      a4:	b3 94       	inc	r11
      a6:	16 2f       	mov	r17, r22
      a8:	00 e0       	ldi	r16, 0x00	; 0
      aa:	31 c0       	rjmp	.+98     	; 0x10e <find_blocks+0xb0>
      ac:	f7 01       	movw	r30, r14
      ae:	e4 0f       	add	r30, r20
      b0:	f5 1f       	adc	r31, r21
      b2:	80 81       	ld	r24, Z
      b4:	88 23       	and	r24, r24
      b6:	99 f0       	breq	.+38     	; 0xde <find_blocks+0x80>
      b8:	83 2f       	mov	r24, r19
      ba:	90 e0       	ldi	r25, 0x00	; 0
      bc:	fc 01       	movw	r30, r24
      be:	ee 0f       	add	r30, r30
      c0:	ff 1f       	adc	r31, r31
      c2:	ee 0f       	add	r30, r30
      c4:	ff 1f       	adc	r31, r31
      c6:	ec 0f       	add	r30, r28
      c8:	fd 1f       	adc	r31, r29
      ca:	22 23       	and	r18, r18
      cc:	19 f4       	brne	.+6      	; 0xd4 <find_blocks+0x76>
      ce:	b3 82       	std	Z+3, r11	; 0x03
      d0:	40 83       	st	Z, r20
      d2:	03 c0       	rjmp	.+6      	; 0xda <find_blocks+0x7c>
      d4:	83 81       	ldd	r24, Z+3	; 0x03
      d6:	8f 5f       	subi	r24, 0xFF	; 255
      d8:	83 83       	std	Z+3, r24	; 0x03
      da:	21 e0       	ldi	r18, 0x01	; 1
      dc:	12 c0       	rjmp	.+36     	; 0x102 <find_blocks+0xa4>
      de:	21 30       	cpi	r18, 0x01	; 1
      e0:	79 f4       	brne	.+30     	; 0x100 <find_blocks+0xa2>
      e2:	e3 2f       	mov	r30, r19
      e4:	f0 e0       	ldi	r31, 0x00	; 0
      e6:	ee 0f       	add	r30, r30
      e8:	ff 1f       	adc	r31, r31
      ea:	ee 0f       	add	r30, r30
      ec:	ff 1f       	adc	r31, r31
      ee:	ec 0f       	add	r30, r28
      f0:	fd 1f       	adc	r31, r29
      f2:	83 81       	ldd	r24, Z+3	; 0x03
      f4:	86 95       	lsr	r24
      f6:	90 81       	ld	r25, Z
      f8:	89 0f       	add	r24, r25
      fa:	81 83       	std	Z+1, r24	; 0x01
      fc:	42 83       	std	Z+2, r20	; 0x02
      fe:	3f 5f       	subi	r19, 0xFF	; 255
     100:	20 e0       	ldi	r18, 0x00	; 0
     102:	ca 01       	movw	r24, r20
     104:	01 96       	adiw	r24, 0x01	; 1
     106:	61 2f       	mov	r22, r17
     108:	70 2f       	mov	r23, r16
     10a:	93 d4       	rcall	.+2342   	; 0xa32 <__divmodhi4>
     10c:	ac 01       	movw	r20, r24
     10e:	4c 15       	cp	r20, r12
     110:	5d 05       	cpc	r21, r13
     112:	61 f6       	brne	.-104    	; 0xac <find_blocks+0x4e>
     114:	21 30       	cpi	r18, 0x01	; 1
     116:	89 f4       	brne	.+34     	; 0x13a <find_blocks+0xdc>
     118:	e3 2f       	mov	r30, r19
     11a:	f0 e0       	ldi	r31, 0x00	; 0
     11c:	ee 0f       	add	r30, r30
     11e:	ff 1f       	adc	r31, r31
     120:	ee 0f       	add	r30, r30
     122:	ff 1f       	adc	r31, r31
     124:	ec 0f       	add	r30, r28
     126:	fd 1f       	adc	r31, r29
     128:	83 81       	ldd	r24, Z+3	; 0x03
     12a:	86 95       	lsr	r24
     12c:	90 81       	ld	r25, Z
     12e:	89 0f       	add	r24, r25
     130:	81 83       	std	Z+1, r24	; 0x01
     132:	42 83       	std	Z+2, r20	; 0x02
     134:	3f 5f       	subi	r19, 0xFF	; 255
     136:	01 c0       	rjmp	.+2      	; 0x13a <find_blocks+0xdc>
     138:	3f ef       	ldi	r19, 0xFF	; 255
     13a:	83 2f       	mov	r24, r19
     13c:	df 91       	pop	r29
     13e:	cf 91       	pop	r28
     140:	1f 91       	pop	r17
     142:	0f 91       	pop	r16
     144:	ff 90       	pop	r15
     146:	ef 90       	pop	r14
     148:	df 90       	pop	r13
     14a:	cf 90       	pop	r12
     14c:	bf 90       	pop	r11
     14e:	08 95       	ret

00000150 <init_sensors>:
     150:	8a 98       	cbi	0x11, 2	; 17
     152:	a3 98       	cbi	0x14, 3	; 20
     154:	8c 98       	cbi	0x11, 4	; 17
     156:	8b 98       	cbi	0x11, 3	; 17
     158:	8e 98       	cbi	0x11, 6	; 17
     15a:	8d 98       	cbi	0x11, 5	; 17
     15c:	b8 98       	cbi	0x17, 0	; 23
     15e:	8f 98       	cbi	0x11, 7	; 17
     160:	ba 98       	cbi	0x17, 2	; 23
     162:	b9 98       	cbi	0x17, 1	; 23
     164:	bc 98       	cbi	0x17, 4	; 23
     166:	bb 98       	cbi	0x17, 3	; 23
     168:	a0 98       	cbi	0x14, 0	; 20
     16a:	bd 98       	cbi	0x17, 5	; 23
     16c:	a2 98       	cbi	0x14, 2	; 20
     16e:	a1 98       	cbi	0x14, 1	; 20
     170:	92 98       	cbi	0x12, 2	; 18
     172:	ab 98       	cbi	0x15, 3	; 21
     174:	94 98       	cbi	0x12, 4	; 18
     176:	93 98       	cbi	0x12, 3	; 18
     178:	96 98       	cbi	0x12, 6	; 18
     17a:	95 98       	cbi	0x12, 5	; 18
     17c:	c0 98       	cbi	0x18, 0	; 24
     17e:	97 98       	cbi	0x12, 7	; 18
     180:	c2 98       	cbi	0x18, 2	; 24
     182:	c1 98       	cbi	0x18, 1	; 24
     184:	c4 98       	cbi	0x18, 4	; 24
     186:	c3 98       	cbi	0x18, 3	; 24
     188:	a8 98       	cbi	0x15, 0	; 21
     18a:	c5 98       	cbi	0x18, 5	; 24
     18c:	aa 98       	cbi	0x15, 2	; 21
     18e:	a9 98       	cbi	0x15, 1	; 21
     190:	08 95       	ret

00000192 <get_value_array>:
     192:	81 e0       	ldi	r24, 0x01	; 1
     194:	82 9b       	sbis	0x10, 2	; 16
     196:	80 e0       	ldi	r24, 0x00	; 0
     198:	80 93 82 01 	sts	0x0182, r24
     19c:	81 e0       	ldi	r24, 0x01	; 1
     19e:	9b 9b       	sbis	0x13, 3	; 19
     1a0:	80 e0       	ldi	r24, 0x00	; 0
     1a2:	80 93 83 01 	sts	0x0183, r24
     1a6:	81 e0       	ldi	r24, 0x01	; 1
     1a8:	84 9b       	sbis	0x10, 4	; 16
     1aa:	80 e0       	ldi	r24, 0x00	; 0
     1ac:	80 93 84 01 	sts	0x0184, r24
     1b0:	81 e0       	ldi	r24, 0x01	; 1
     1b2:	83 9b       	sbis	0x10, 3	; 16
     1b4:	80 e0       	ldi	r24, 0x00	; 0
     1b6:	80 93 85 01 	sts	0x0185, r24
     1ba:	81 e0       	ldi	r24, 0x01	; 1
     1bc:	86 9b       	sbis	0x10, 6	; 16
     1be:	80 e0       	ldi	r24, 0x00	; 0
     1c0:	80 93 86 01 	sts	0x0186, r24
     1c4:	10 92 87 01 	sts	0x0187, r1
     1c8:	86 b3       	in	r24, 0x16	; 22
     1ca:	81 70       	andi	r24, 0x01	; 1
     1cc:	80 93 88 01 	sts	0x0188, r24
     1d0:	80 b3       	in	r24, 0x10	; 16
     1d2:	88 1f       	adc	r24, r24
     1d4:	88 27       	eor	r24, r24
     1d6:	88 1f       	adc	r24, r24
     1d8:	80 93 89 01 	sts	0x0189, r24
     1dc:	81 e0       	ldi	r24, 0x01	; 1
     1de:	b2 9b       	sbis	0x16, 2	; 22
     1e0:	80 e0       	ldi	r24, 0x00	; 0
     1e2:	80 93 8a 01 	sts	0x018A, r24
     1e6:	81 e0       	ldi	r24, 0x01	; 1
     1e8:	b1 9b       	sbis	0x16, 1	; 22
     1ea:	80 e0       	ldi	r24, 0x00	; 0
     1ec:	80 93 8b 01 	sts	0x018B, r24
     1f0:	81 e0       	ldi	r24, 0x01	; 1
     1f2:	b4 9b       	sbis	0x16, 4	; 22
     1f4:	80 e0       	ldi	r24, 0x00	; 0
     1f6:	80 93 8c 01 	sts	0x018C, r24
     1fa:	81 e0       	ldi	r24, 0x01	; 1
     1fc:	b3 9b       	sbis	0x16, 3	; 22
     1fe:	80 e0       	ldi	r24, 0x00	; 0
     200:	80 93 8d 01 	sts	0x018D, r24
     204:	83 b3       	in	r24, 0x13	; 19
     206:	81 70       	andi	r24, 0x01	; 1
     208:	80 93 8e 01 	sts	0x018E, r24
     20c:	81 e0       	ldi	r24, 0x01	; 1
     20e:	b5 9b       	sbis	0x16, 5	; 22
     210:	80 e0       	ldi	r24, 0x00	; 0
     212:	80 93 8f 01 	sts	0x018F, r24
     216:	81 e0       	ldi	r24, 0x01	; 1
     218:	9a 9b       	sbis	0x13, 2	; 19
     21a:	80 e0       	ldi	r24, 0x00	; 0
     21c:	80 93 90 01 	sts	0x0190, r24
     220:	81 e0       	ldi	r24, 0x01	; 1
     222:	99 9b       	sbis	0x13, 1	; 19
     224:	80 e0       	ldi	r24, 0x00	; 0
     226:	80 93 91 01 	sts	0x0191, r24
     22a:	82 e8       	ldi	r24, 0x82	; 130
     22c:	91 e0       	ldi	r25, 0x01	; 1
     22e:	08 95       	ret

00000230 <get_value_bit>:
     230:	b0 df       	rcall	.-160    	; 0x192 <get_value_array>
     232:	fc 01       	movw	r30, r24
     234:	80 e0       	ldi	r24, 0x00	; 0
     236:	90 e0       	ldi	r25, 0x00	; 0
     238:	20 e0       	ldi	r18, 0x00	; 0
     23a:	30 e0       	ldi	r19, 0x00	; 0
     23c:	41 91       	ld	r20, Z+
     23e:	24 0f       	add	r18, r20
     240:	31 1d       	adc	r19, r1
     242:	22 0f       	add	r18, r18
     244:	33 1f       	adc	r19, r19
     246:	01 96       	adiw	r24, 0x01	; 1
     248:	80 31       	cpi	r24, 0x10	; 16
     24a:	91 05       	cpc	r25, r1
     24c:	b9 f7       	brne	.-18     	; 0x23c <get_value_bit+0xc>
     24e:	c9 01       	movw	r24, r18
     250:	08 95       	ret

00000252 <init_twi_slave>:
     252:	82 b9       	out	0x02, r24	; 2
     254:	86 b7       	in	r24, 0x36	; 54
     256:	8f 7d       	andi	r24, 0xDF	; 223
     258:	86 bf       	out	0x36, r24	; 54
     25a:	86 b7       	in	r24, 0x36	; 54
     25c:	85 64       	ori	r24, 0x45	; 69
     25e:	86 bf       	out	0x36, r24	; 54
     260:	8f ef       	ldi	r24, 0xFF	; 255
     262:	80 93 de 01 	sts	0x01DE, r24
     266:	78 94       	sei
     268:	08 95       	ret

0000026a <__vector_17>:
     26a:	1f 92       	push	r1
     26c:	0f 92       	push	r0
     26e:	0f b6       	in	r0, 0x3f	; 63
     270:	0f 92       	push	r0
     272:	11 24       	eor	r1, r1
     274:	8f 93       	push	r24
     276:	9f 93       	push	r25
     278:	ef 93       	push	r30
     27a:	ff 93       	push	r31
     27c:	81 b1       	in	r24, 0x01	; 1
     27e:	90 e0       	ldi	r25, 0x00	; 0
     280:	88 7f       	andi	r24, 0xF8	; 248
     282:	90 70       	andi	r25, 0x00	; 0
     284:	80 38       	cpi	r24, 0x80	; 128
     286:	91 05       	cpc	r25, r1
     288:	a1 f0       	breq	.+40     	; 0x2b2 <__vector_17+0x48>
     28a:	81 38       	cpi	r24, 0x81	; 129
     28c:	91 05       	cpc	r25, r1
     28e:	24 f4       	brge	.+8      	; 0x298 <__vector_17+0x2e>
     290:	80 36       	cpi	r24, 0x60	; 96
     292:	91 05       	cpc	r25, r1
     294:	d1 f5       	brne	.+116    	; 0x30a <__vector_17+0xa0>
     296:	07 c0       	rjmp	.+14     	; 0x2a6 <__vector_17+0x3c>
     298:	88 3a       	cpi	r24, 0xA8	; 168
     29a:	91 05       	cpc	r25, r1
     29c:	f1 f0       	breq	.+60     	; 0x2da <__vector_17+0x70>
     29e:	88 3b       	cpi	r24, 0xB8	; 184
     2a0:	91 05       	cpc	r25, r1
     2a2:	99 f5       	brne	.+102    	; 0x30a <__vector_17+0xa0>
     2a4:	1a c0       	rjmp	.+52     	; 0x2da <__vector_17+0x70>
     2a6:	85 ec       	ldi	r24, 0xC5	; 197
     2a8:	86 bf       	out	0x36, r24	; 54
     2aa:	8f ef       	ldi	r24, 0xFF	; 255
     2ac:	80 93 de 01 	sts	0x01DE, r24
     2b0:	2e c0       	rjmp	.+92     	; 0x30e <__vector_17+0xa4>
     2b2:	83 b1       	in	r24, 0x03	; 3
     2b4:	90 91 de 01 	lds	r25, 0x01DE
     2b8:	9f 3f       	cpi	r25, 0xFF	; 255
     2ba:	41 f4       	brne	.+16     	; 0x2cc <__vector_17+0x62>
     2bc:	85 31       	cpi	r24, 0x15	; 21
     2be:	18 f4       	brcc	.+6      	; 0x2c6 <__vector_17+0x5c>
     2c0:	80 93 de 01 	sts	0x01DE, r24
     2c4:	22 c0       	rjmp	.+68     	; 0x30a <__vector_17+0xa0>
     2c6:	10 92 de 01 	sts	0x01DE, r1
     2ca:	1f c0       	rjmp	.+62     	; 0x30a <__vector_17+0xa0>
     2cc:	e0 91 de 01 	lds	r30, 0x01DE
     2d0:	f0 e0       	ldi	r31, 0x00	; 0
     2d2:	ed 50       	subi	r30, 0x0D	; 13
     2d4:	fe 4f       	sbci	r31, 0xFE	; 254
     2d6:	80 83       	st	Z, r24
     2d8:	0d c0       	rjmp	.+26     	; 0x2f4 <__vector_17+0x8a>
     2da:	80 91 de 01 	lds	r24, 0x01DE
     2de:	8f 3f       	cpi	r24, 0xFF	; 255
     2e0:	11 f4       	brne	.+4      	; 0x2e6 <__vector_17+0x7c>
     2e2:	10 92 de 01 	sts	0x01DE, r1
     2e6:	e0 91 de 01 	lds	r30, 0x01DE
     2ea:	f0 e0       	ldi	r31, 0x00	; 0
     2ec:	e1 52       	subi	r30, 0x21	; 33
     2ee:	fe 4f       	sbci	r31, 0xFE	; 254
     2f0:	80 81       	ld	r24, Z
     2f2:	83 b9       	out	0x03, r24	; 3
     2f4:	80 91 de 01 	lds	r24, 0x01DE
     2f8:	8f 5f       	subi	r24, 0xFF	; 255
     2fa:	80 93 de 01 	sts	0x01DE, r24
     2fe:	80 91 de 01 	lds	r24, 0x01DE
     302:	83 31       	cpi	r24, 0x13	; 19
     304:	10 f0       	brcs	.+4      	; 0x30a <__vector_17+0xa0>
     306:	85 e8       	ldi	r24, 0x85	; 133
     308:	01 c0       	rjmp	.+2      	; 0x30c <__vector_17+0xa2>
     30a:	85 ec       	ldi	r24, 0xC5	; 197
     30c:	86 bf       	out	0x36, r24	; 54
     30e:	ff 91       	pop	r31
     310:	ef 91       	pop	r30
     312:	9f 91       	pop	r25
     314:	8f 91       	pop	r24
     316:	0f 90       	pop	r0
     318:	0f be       	out	0x3f, r0	; 63
     31a:	0f 90       	pop	r0
     31c:	1f 90       	pop	r1
     31e:	18 95       	reti

00000320 <__vector_11>:
     320:	1f 92       	push	r1
     322:	0f 92       	push	r0
     324:	0f b6       	in	r0, 0x3f	; 63
     326:	0f 92       	push	r0
     328:	11 24       	eor	r1, r1
     32a:	2f 93       	push	r18
     32c:	8f 93       	push	r24
     32e:	9f 93       	push	r25
     330:	ef 93       	push	r30
     332:	ff 93       	push	r31
     334:	9b b1       	in	r25, 0x0b	; 11
     336:	8c b1       	in	r24, 0x0c	; 12
     338:	e0 91 94 01 	lds	r30, 0x0194
     33c:	ef 5f       	subi	r30, 0xFF	; 255
     33e:	ef 71       	andi	r30, 0x1F	; 31
     340:	20 91 93 01 	lds	r18, 0x0193
     344:	e2 17       	cp	r30, r18
     346:	41 f0       	breq	.+16     	; 0x358 <__vector_11+0x38>
     348:	98 71       	andi	r25, 0x18	; 24
     34a:	e0 93 94 01 	sts	0x0194, r30
     34e:	f0 e0       	ldi	r31, 0x00	; 0
     350:	e9 56       	subi	r30, 0x69	; 105
     352:	fe 4f       	sbci	r31, 0xFE	; 254
     354:	80 83       	st	Z, r24
     356:	01 c0       	rjmp	.+2      	; 0x35a <__vector_11+0x3a>
     358:	92 e0       	ldi	r25, 0x02	; 2
     35a:	80 91 92 01 	lds	r24, 0x0192
     35e:	89 2b       	or	r24, r25
     360:	80 93 92 01 	sts	0x0192, r24
     364:	ff 91       	pop	r31
     366:	ef 91       	pop	r30
     368:	9f 91       	pop	r25
     36a:	8f 91       	pop	r24
     36c:	2f 91       	pop	r18
     36e:	0f 90       	pop	r0
     370:	0f be       	out	0x3f, r0	; 63
     372:	0f 90       	pop	r0
     374:	1f 90       	pop	r1
     376:	18 95       	reti

00000378 <__vector_12>:
     378:	1f 92       	push	r1
     37a:	0f 92       	push	r0
     37c:	0f b6       	in	r0, 0x3f	; 63
     37e:	0f 92       	push	r0
     380:	11 24       	eor	r1, r1
     382:	8f 93       	push	r24
     384:	9f 93       	push	r25
     386:	ef 93       	push	r30
     388:	ff 93       	push	r31
     38a:	90 91 96 01 	lds	r25, 0x0196
     38e:	80 91 95 01 	lds	r24, 0x0195
     392:	98 17       	cp	r25, r24
     394:	61 f0       	breq	.+24     	; 0x3ae <__vector_12+0x36>
     396:	e0 91 95 01 	lds	r30, 0x0195
     39a:	ef 5f       	subi	r30, 0xFF	; 255
     39c:	ef 71       	andi	r30, 0x1F	; 31
     39e:	e0 93 95 01 	sts	0x0195, r30
     3a2:	f0 e0       	ldi	r31, 0x00	; 0
     3a4:	e9 54       	subi	r30, 0x49	; 73
     3a6:	fe 4f       	sbci	r31, 0xFE	; 254
     3a8:	80 81       	ld	r24, Z
     3aa:	8c b9       	out	0x0c, r24	; 12
     3ac:	01 c0       	rjmp	.+2      	; 0x3b0 <__vector_12+0x38>
     3ae:	55 98       	cbi	0x0a, 5	; 10
     3b0:	ff 91       	pop	r31
     3b2:	ef 91       	pop	r30
     3b4:	9f 91       	pop	r25
     3b6:	8f 91       	pop	r24
     3b8:	0f 90       	pop	r0
     3ba:	0f be       	out	0x3f, r0	; 63
     3bc:	0f 90       	pop	r0
     3be:	1f 90       	pop	r1
     3c0:	18 95       	reti

000003c2 <uart_init>:
     3c2:	10 92 96 01 	sts	0x0196, r1
     3c6:	10 92 95 01 	sts	0x0195, r1
     3ca:	10 92 94 01 	sts	0x0194, r1
     3ce:	10 92 93 01 	sts	0x0193, r1
     3d2:	97 ff       	sbrs	r25, 7
     3d4:	02 c0       	rjmp	.+4      	; 0x3da <uart_init+0x18>
     3d6:	22 e0       	ldi	r18, 0x02	; 2
     3d8:	2b b9       	out	0x0b, r18	; 11
     3da:	90 78       	andi	r25, 0x80	; 128
     3dc:	90 bd       	out	0x20, r25	; 32
     3de:	89 b9       	out	0x09, r24	; 9
     3e0:	88 e9       	ldi	r24, 0x98	; 152
     3e2:	8a b9       	out	0x0a, r24	; 10
     3e4:	86 e8       	ldi	r24, 0x86	; 134
     3e6:	80 bd       	out	0x20, r24	; 32
     3e8:	08 95       	ret

000003ea <uart_getc>:
     3ea:	90 91 94 01 	lds	r25, 0x0194
     3ee:	80 91 93 01 	lds	r24, 0x0193
     3f2:	98 17       	cp	r25, r24
     3f4:	a1 f0       	breq	.+40     	; 0x41e <uart_getc+0x34>
     3f6:	80 91 93 01 	lds	r24, 0x0193
     3fa:	8f 5f       	subi	r24, 0xFF	; 255
     3fc:	8f 71       	andi	r24, 0x1F	; 31
     3fe:	e8 2f       	mov	r30, r24
     400:	f0 e0       	ldi	r31, 0x00	; 0
     402:	e9 56       	subi	r30, 0x69	; 105
     404:	fe 4f       	sbci	r31, 0xFE	; 254
     406:	20 81       	ld	r18, Z
     408:	30 91 92 01 	lds	r19, 0x0192
     40c:	80 93 93 01 	sts	0x0193, r24
     410:	10 92 92 01 	sts	0x0192, r1
     414:	93 2f       	mov	r25, r19
     416:	80 e0       	ldi	r24, 0x00	; 0
     418:	82 0f       	add	r24, r18
     41a:	91 1d       	adc	r25, r1
     41c:	08 95       	ret
     41e:	80 e0       	ldi	r24, 0x00	; 0
     420:	91 e0       	ldi	r25, 0x01	; 1
     422:	08 95       	ret

00000424 <uart_putc>:
     424:	90 91 96 01 	lds	r25, 0x0196
     428:	9f 5f       	subi	r25, 0xFF	; 255
     42a:	9f 71       	andi	r25, 0x1F	; 31
     42c:	20 91 95 01 	lds	r18, 0x0195
     430:	92 17       	cp	r25, r18
     432:	e1 f3       	breq	.-8      	; 0x42c <uart_putc+0x8>
     434:	e9 2f       	mov	r30, r25
     436:	f0 e0       	ldi	r31, 0x00	; 0
     438:	e9 54       	subi	r30, 0x49	; 73
     43a:	fe 4f       	sbci	r31, 0xFE	; 254
     43c:	80 83       	st	Z, r24
     43e:	90 93 96 01 	sts	0x0196, r25
     442:	55 9a       	sbi	0x0a, 5	; 10
     444:	08 95       	ret

00000446 <uart_puts>:
     446:	cf 93       	push	r28
     448:	df 93       	push	r29
     44a:	ec 01       	movw	r28, r24
     44c:	01 c0       	rjmp	.+2      	; 0x450 <uart_puts+0xa>
     44e:	ea df       	rcall	.-44     	; 0x424 <uart_putc>
     450:	89 91       	ld	r24, Y+
     452:	88 23       	and	r24, r24
     454:	e1 f7       	brne	.-8      	; 0x44e <uart_puts+0x8>
     456:	df 91       	pop	r29
     458:	cf 91       	pop	r28
     45a:	08 95       	ret

0000045c <uart_puts_p>:
     45c:	cf 93       	push	r28
     45e:	df 93       	push	r29
     460:	ec 01       	movw	r28, r24
     462:	01 c0       	rjmp	.+2      	; 0x466 <__stack+0x7>
     464:	df df       	rcall	.-66     	; 0x424 <uart_putc>
     466:	fe 01       	movw	r30, r28
     468:	21 96       	adiw	r28, 0x01	; 1
     46a:	84 91       	lpm	r24, Z
     46c:	88 23       	and	r24, r24
     46e:	d1 f7       	brne	.-12     	; 0x464 <__stack+0x5>
     470:	df 91       	pop	r29
     472:	cf 91       	pop	r28
     474:	08 95       	ret

00000476 <init>:
     476:	f8 94       	cli
     478:	82 e4       	ldi	r24, 0x42	; 66
     47a:	eb de       	rcall	.-554    	; 0x252 <init_twi_slave>
     47c:	83 e3       	ldi	r24, 0x33	; 51
     47e:	90 e0       	ldi	r25, 0x00	; 0
     480:	a0 df       	rcall	.-192    	; 0x3c2 <uart_init>
     482:	89 9a       	sbi	0x11, 1	; 17
     484:	81 b3       	in	r24, 0x11	; 17
     486:	8e 7c       	andi	r24, 0xCE	; 206
     488:	81 bb       	out	0x11, r24	; 17
     48a:	62 de       	rcall	.-828    	; 0x150 <init_sensors>
     48c:	78 94       	sei
     48e:	08 95       	ret

00000490 <process>:
     490:	8f 92       	push	r8
     492:	9f 92       	push	r9
     494:	af 92       	push	r10
     496:	bf 92       	push	r11
     498:	df 92       	push	r13
     49a:	ef 92       	push	r14
     49c:	ff 92       	push	r15
     49e:	0f 93       	push	r16
     4a0:	1f 93       	push	r17
     4a2:	cf 93       	push	r28
     4a4:	df 93       	push	r29
     4a6:	cd b7       	in	r28, 0x3d	; 61
     4a8:	de b7       	in	r29, 0x3e	; 62
     4aa:	c4 5a       	subi	r28, 0xA4	; 164
     4ac:	d0 40       	sbci	r29, 0x00	; 0
     4ae:	0f b6       	in	r0, 0x3f	; 63
     4b0:	f8 94       	cli
     4b2:	de bf       	out	0x3e, r29	; 62
     4b4:	0f be       	out	0x3f, r0	; 63
     4b6:	cd bf       	out	0x3d, r28	; 61
     4b8:	bb de       	rcall	.-650    	; 0x230 <get_value_bit>
     4ba:	90 93 df 01 	sts	0x01DF, r25
     4be:	10 92 e0 01 	sts	0x01E0, r1
     4c2:	67 de       	rcall	.-818    	; 0x192 <get_value_array>
     4c4:	4c 01       	movw	r8, r24
     4c6:	60 e1       	ldi	r22, 0x10	; 16
     4c8:	ae 01       	movw	r20, r28
     4ca:	4f 5f       	subi	r20, 0xFF	; 255
     4cc:	5f 4f       	sbci	r21, 0xFF	; 255
     4ce:	c7 dd       	rcall	.-1138   	; 0x5e <find_blocks>
     4d0:	d8 2e       	mov	r13, r24
     4d2:	88 23       	and	r24, r24
     4d4:	29 f4       	brne	.+10     	; 0x4e0 <process+0x50>
     4d6:	10 92 d7 01 	sts	0x01D7, r1
     4da:	10 e0       	ldi	r17, 0x00	; 0
     4dc:	00 e0       	ldi	r16, 0x00	; 0
     4de:	3e c0       	rjmp	.+124    	; 0x55c <process+0xcc>
     4e0:	21 e0       	ldi	r18, 0x01	; 1
     4e2:	82 17       	cp	r24, r18
     4e4:	29 f4       	brne	.+10     	; 0x4f0 <process+0x60>
     4e6:	0a 81       	ldd	r16, Y+2	; 0x02
     4e8:	10 e1       	ldi	r17, 0x10	; 16
     4ea:	8c 81       	ldd	r24, Y+4	; 0x04
     4ec:	18 1b       	sub	r17, r24
     4ee:	27 c0       	rjmp	.+78     	; 0x53e <process+0xae>
     4f0:	81 e0       	ldi	r24, 0x01	; 1
     4f2:	8d 15       	cp	r24, r13
     4f4:	10 f5       	brcc	.+68     	; 0x53a <process+0xaa>
     4f6:	ea 81       	ldd	r30, Y+2	; 0x02
     4f8:	ae 2e       	mov	r10, r30
     4fa:	bb 24       	eor	r11, r11
     4fc:	fe 81       	ldd	r31, Y+6	; 0x06
     4fe:	ef 2e       	mov	r14, r31
     500:	ff 24       	eor	r15, r15
     502:	c5 01       	movw	r24, r10
     504:	8e 19       	sub	r24, r14
     506:	9f 09       	sbc	r25, r15
     508:	40 96       	adiw	r24, 0x10	; 16
     50a:	20 e1       	ldi	r18, 0x10	; 16
     50c:	30 e0       	ldi	r19, 0x00	; 0
     50e:	b9 01       	movw	r22, r18
     510:	90 d2       	rcall	.+1312   	; 0xa32 <__divmodhi4>
     512:	48 2f       	mov	r20, r24
     514:	c7 01       	movw	r24, r14
     516:	8a 19       	sub	r24, r10
     518:	9b 09       	sbc	r25, r11
     51a:	40 96       	adiw	r24, 0x10	; 16
     51c:	b9 01       	movw	r22, r18
     51e:	89 d2       	rcall	.+1298   	; 0xa32 <__divmodhi4>
     520:	08 2f       	mov	r16, r24
     522:	10 e1       	ldi	r17, 0x10	; 16
     524:	84 17       	cp	r24, r20
     526:	20 f4       	brcc	.+8      	; 0x530 <process+0xa0>
     528:	18 1b       	sub	r17, r24
     52a:	06 95       	lsr	r16
     52c:	0e 0f       	add	r16, r30
     52e:	07 c0       	rjmp	.+14     	; 0x53e <process+0xae>
     530:	14 1b       	sub	r17, r20
     532:	04 2f       	mov	r16, r20
     534:	06 95       	lsr	r16
     536:	0f 0f       	add	r16, r31
     538:	02 c0       	rjmp	.+4      	; 0x53e <process+0xae>
     53a:	10 e0       	ldi	r17, 0x00	; 0
     53c:	00 e0       	ldi	r16, 0x00	; 0
     53e:	80 91 d7 01 	lds	r24, 0x01D7
     542:	88 23       	and	r24, r24
     544:	21 f4       	brne	.+8      	; 0x54e <process+0xbe>
     546:	00 93 d8 01 	sts	0x01D8, r16
     54a:	10 93 d9 01 	sts	0x01D9, r17
     54e:	81 e0       	ldi	r24, 0x01	; 1
     550:	80 93 d7 01 	sts	0x01D7, r24
     554:	00 93 da 01 	sts	0x01DA, r16
     558:	10 93 db 01 	sts	0x01DB, r17
     55c:	80 91 d8 01 	lds	r24, 0x01D8
     560:	80 93 e2 01 	sts	0x01E2, r24
     564:	80 91 d9 01 	lds	r24, 0x01D9
     568:	80 93 e3 01 	sts	0x01E3, r24
     56c:	00 93 e4 01 	sts	0x01E4, r16
     570:	10 93 e5 01 	sts	0x01E5, r17
     574:	80 91 da 01 	lds	r24, 0x01DA
     578:	80 93 e6 01 	sts	0x01E6, r24
     57c:	80 91 db 01 	lds	r24, 0x01DB
     580:	80 93 e7 01 	sts	0x01E7, r24
     584:	80 91 dc 01 	lds	r24, 0x01DC
     588:	90 91 dd 01 	lds	r25, 0x01DD
     58c:	01 96       	adiw	r24, 0x01	; 1
     58e:	90 93 dd 01 	sts	0x01DD, r25
     592:	80 93 dc 01 	sts	0x01DC, r24
     596:	a3 e0       	ldi	r26, 0x03	; 3
     598:	88 3e       	cpi	r24, 0xE8	; 232
     59a:	9a 07       	cpc	r25, r26
     59c:	09 f0       	breq	.+2      	; 0x5a0 <process+0x110>
     59e:	33 c2       	rjmp	.+1126   	; 0xa06 <process+0x576>
     5a0:	10 92 dd 01 	sts	0x01DD, r1
     5a4:	10 92 dc 01 	sts	0x01DC, r1
     5a8:	8b e1       	ldi	r24, 0x1B	; 27
     5aa:	3c df       	rcall	.-392    	; 0x424 <uart_putc>
     5ac:	80 e6       	ldi	r24, 0x60	; 96
     5ae:	90 e0       	ldi	r25, 0x00	; 0
     5b0:	4a df       	rcall	.-364    	; 0x446 <uart_puts>
     5b2:	8b e1       	ldi	r24, 0x1B	; 27
     5b4:	37 df       	rcall	.-402    	; 0x424 <uart_putc>
     5b6:	84 e6       	ldi	r24, 0x64	; 100
     5b8:	90 e0       	ldi	r25, 0x00	; 0
     5ba:	45 df       	rcall	.-374    	; 0x446 <uart_puts>
     5bc:	00 d0       	rcall	.+0      	; 0x5be <process+0x12e>
     5be:	00 d0       	rcall	.+0      	; 0x5c0 <process+0x130>
     5c0:	00 d0       	rcall	.+0      	; 0x5c2 <process+0x132>
     5c2:	ed b7       	in	r30, 0x3d	; 61
     5c4:	fe b7       	in	r31, 0x3e	; 62
     5c6:	31 96       	adiw	r30, 0x01	; 1
     5c8:	21 e4       	ldi	r18, 0x41	; 65
     5ca:	e2 2e       	mov	r14, r18
     5cc:	f1 2c       	mov	r15, r1
     5ce:	ec 0e       	add	r14, r28
     5d0:	fd 1e       	adc	r15, r29
     5d2:	ad b7       	in	r26, 0x3d	; 61
     5d4:	be b7       	in	r27, 0x3e	; 62
     5d6:	12 96       	adiw	r26, 0x02	; 2
     5d8:	fc 92       	st	X, r15
     5da:	ee 92       	st	-X, r14
     5dc:	11 97       	sbiw	r26, 0x01	; 1
     5de:	87 e6       	ldi	r24, 0x67	; 103
     5e0:	90 e0       	ldi	r25, 0x00	; 0
     5e2:	93 83       	std	Z+3, r25	; 0x03
     5e4:	82 83       	std	Z+2, r24	; 0x02
     5e6:	d4 82       	std	Z+4, r13	; 0x04
     5e8:	15 82       	std	Z+5, r1	; 0x05
     5ea:	4a d2       	rcall	.+1172   	; 0xa80 <sprintf>
     5ec:	ed b7       	in	r30, 0x3d	; 61
     5ee:	fe b7       	in	r31, 0x3e	; 62
     5f0:	36 96       	adiw	r30, 0x06	; 6
     5f2:	0f b6       	in	r0, 0x3f	; 63
     5f4:	f8 94       	cli
     5f6:	fe bf       	out	0x3e, r31	; 62
     5f8:	0f be       	out	0x3f, r0	; 63
     5fa:	ed bf       	out	0x3d, r30	; 61
     5fc:	c7 01       	movw	r24, r14
     5fe:	23 df       	rcall	.-442    	; 0x446 <uart_puts>
     600:	00 d0       	rcall	.+0      	; 0x602 <process+0x172>
     602:	00 d0       	rcall	.+0      	; 0x604 <process+0x174>
     604:	00 d0       	rcall	.+0      	; 0x606 <process+0x176>
     606:	ed b7       	in	r30, 0x3d	; 61
     608:	fe b7       	in	r31, 0x3e	; 62
     60a:	31 96       	adiw	r30, 0x01	; 1
     60c:	ad b7       	in	r26, 0x3d	; 61
     60e:	be b7       	in	r27, 0x3e	; 62
     610:	12 96       	adiw	r26, 0x02	; 2
     612:	fc 92       	st	X, r15
     614:	ee 92       	st	-X, r14
     616:	11 97       	sbiw	r26, 0x01	; 1
     618:	89 e7       	ldi	r24, 0x79	; 121
     61a:	90 e0       	ldi	r25, 0x00	; 0
     61c:	93 83       	std	Z+3, r25	; 0x03
     61e:	82 83       	std	Z+2, r24	; 0x02
     620:	80 91 d8 01 	lds	r24, 0x01D8
     624:	84 83       	std	Z+4, r24	; 0x04
     626:	15 82       	std	Z+5, r1	; 0x05
     628:	2b d2       	rcall	.+1110   	; 0xa80 <sprintf>
     62a:	ed b7       	in	r30, 0x3d	; 61
     62c:	fe b7       	in	r31, 0x3e	; 62
     62e:	36 96       	adiw	r30, 0x06	; 6
     630:	0f b6       	in	r0, 0x3f	; 63
     632:	f8 94       	cli
     634:	fe bf       	out	0x3e, r31	; 62
     636:	0f be       	out	0x3f, r0	; 63
     638:	ed bf       	out	0x3d, r30	; 61
     63a:	c7 01       	movw	r24, r14
     63c:	04 df       	rcall	.-504    	; 0x446 <uart_puts>
     63e:	00 d0       	rcall	.+0      	; 0x640 <process+0x1b0>
     640:	00 d0       	rcall	.+0      	; 0x642 <process+0x1b2>
     642:	00 d0       	rcall	.+0      	; 0x644 <process+0x1b4>
     644:	ed b7       	in	r30, 0x3d	; 61
     646:	fe b7       	in	r31, 0x3e	; 62
     648:	31 96       	adiw	r30, 0x01	; 1
     64a:	ad b7       	in	r26, 0x3d	; 61
     64c:	be b7       	in	r27, 0x3e	; 62
     64e:	12 96       	adiw	r26, 0x02	; 2
     650:	fc 92       	st	X, r15
     652:	ee 92       	st	-X, r14
     654:	11 97       	sbiw	r26, 0x01	; 1
     656:	8f e8       	ldi	r24, 0x8F	; 143
     658:	90 e0       	ldi	r25, 0x00	; 0
     65a:	93 83       	std	Z+3, r25	; 0x03
     65c:	82 83       	std	Z+2, r24	; 0x02
     65e:	80 91 d9 01 	lds	r24, 0x01D9
     662:	84 83       	std	Z+4, r24	; 0x04
     664:	15 82       	std	Z+5, r1	; 0x05
     666:	0c d2       	rcall	.+1048   	; 0xa80 <sprintf>
     668:	ed b7       	in	r30, 0x3d	; 61
     66a:	fe b7       	in	r31, 0x3e	; 62
     66c:	36 96       	adiw	r30, 0x06	; 6
     66e:	0f b6       	in	r0, 0x3f	; 63
     670:	f8 94       	cli
     672:	fe bf       	out	0x3e, r31	; 62
     674:	0f be       	out	0x3f, r0	; 63
     676:	ed bf       	out	0x3d, r30	; 61
     678:	c7 01       	movw	r24, r14
     67a:	e5 de       	rcall	.-566    	; 0x446 <uart_puts>
     67c:	00 d0       	rcall	.+0      	; 0x67e <process+0x1ee>
     67e:	00 d0       	rcall	.+0      	; 0x680 <process+0x1f0>
     680:	00 d0       	rcall	.+0      	; 0x682 <process+0x1f2>
     682:	ed b7       	in	r30, 0x3d	; 61
     684:	fe b7       	in	r31, 0x3e	; 62
     686:	31 96       	adiw	r30, 0x01	; 1
     688:	ad b7       	in	r26, 0x3d	; 61
     68a:	be b7       	in	r27, 0x3e	; 62
     68c:	12 96       	adiw	r26, 0x02	; 2
     68e:	fc 92       	st	X, r15
     690:	ee 92       	st	-X, r14
     692:	11 97       	sbiw	r26, 0x01	; 1
     694:	84 ea       	ldi	r24, 0xA4	; 164
     696:	90 e0       	ldi	r25, 0x00	; 0
     698:	93 83       	std	Z+3, r25	; 0x03
     69a:	82 83       	std	Z+2, r24	; 0x02
     69c:	04 83       	std	Z+4, r16	; 0x04
     69e:	15 82       	std	Z+5, r1	; 0x05
     6a0:	ef d1       	rcall	.+990    	; 0xa80 <sprintf>
     6a2:	ed b7       	in	r30, 0x3d	; 61
     6a4:	fe b7       	in	r31, 0x3e	; 62
     6a6:	36 96       	adiw	r30, 0x06	; 6
     6a8:	0f b6       	in	r0, 0x3f	; 63
     6aa:	f8 94       	cli
     6ac:	fe bf       	out	0x3e, r31	; 62
     6ae:	0f be       	out	0x3f, r0	; 63
     6b0:	ed bf       	out	0x3d, r30	; 61
     6b2:	c7 01       	movw	r24, r14
     6b4:	c8 de       	rcall	.-624    	; 0x446 <uart_puts>
     6b6:	00 d0       	rcall	.+0      	; 0x6b8 <process+0x228>
     6b8:	00 d0       	rcall	.+0      	; 0x6ba <process+0x22a>
     6ba:	00 d0       	rcall	.+0      	; 0x6bc <process+0x22c>
     6bc:	ed b7       	in	r30, 0x3d	; 61
     6be:	fe b7       	in	r31, 0x3e	; 62
     6c0:	31 96       	adiw	r30, 0x01	; 1
     6c2:	ad b7       	in	r26, 0x3d	; 61
     6c4:	be b7       	in	r27, 0x3e	; 62
     6c6:	12 96       	adiw	r26, 0x02	; 2
     6c8:	fc 92       	st	X, r15
     6ca:	ee 92       	st	-X, r14
     6cc:	11 97       	sbiw	r26, 0x01	; 1
     6ce:	84 eb       	ldi	r24, 0xB4	; 180
     6d0:	90 e0       	ldi	r25, 0x00	; 0
     6d2:	93 83       	std	Z+3, r25	; 0x03
     6d4:	82 83       	std	Z+2, r24	; 0x02
     6d6:	14 83       	std	Z+4, r17	; 0x04
     6d8:	15 82       	std	Z+5, r1	; 0x05
     6da:	d2 d1       	rcall	.+932    	; 0xa80 <sprintf>
     6dc:	ed b7       	in	r30, 0x3d	; 61
     6de:	fe b7       	in	r31, 0x3e	; 62
     6e0:	36 96       	adiw	r30, 0x06	; 6
     6e2:	0f b6       	in	r0, 0x3f	; 63
     6e4:	f8 94       	cli
     6e6:	fe bf       	out	0x3e, r31	; 62
     6e8:	0f be       	out	0x3f, r0	; 63
     6ea:	ed bf       	out	0x3d, r30	; 61
     6ec:	c7 01       	movw	r24, r14
     6ee:	ab de       	rcall	.-682    	; 0x446 <uart_puts>
     6f0:	00 d0       	rcall	.+0      	; 0x6f2 <process+0x262>
     6f2:	00 d0       	rcall	.+0      	; 0x6f4 <process+0x264>
     6f4:	00 d0       	rcall	.+0      	; 0x6f6 <process+0x266>
     6f6:	ed b7       	in	r30, 0x3d	; 61
     6f8:	fe b7       	in	r31, 0x3e	; 62
     6fa:	31 96       	adiw	r30, 0x01	; 1
     6fc:	ad b7       	in	r26, 0x3d	; 61
     6fe:	be b7       	in	r27, 0x3e	; 62
     700:	12 96       	adiw	r26, 0x02	; 2
     702:	fc 92       	st	X, r15
     704:	ee 92       	st	-X, r14
     706:	11 97       	sbiw	r26, 0x01	; 1
     708:	83 ec       	ldi	r24, 0xC3	; 195
     70a:	90 e0       	ldi	r25, 0x00	; 0
     70c:	93 83       	std	Z+3, r25	; 0x03
     70e:	82 83       	std	Z+2, r24	; 0x02
     710:	80 91 da 01 	lds	r24, 0x01DA
     714:	84 83       	std	Z+4, r24	; 0x04
     716:	15 82       	std	Z+5, r1	; 0x05
     718:	b3 d1       	rcall	.+870    	; 0xa80 <sprintf>
     71a:	ed b7       	in	r30, 0x3d	; 61
     71c:	fe b7       	in	r31, 0x3e	; 62
     71e:	36 96       	adiw	r30, 0x06	; 6
     720:	0f b6       	in	r0, 0x3f	; 63
     722:	f8 94       	cli
     724:	fe bf       	out	0x3e, r31	; 62
     726:	0f be       	out	0x3f, r0	; 63
     728:	ed bf       	out	0x3d, r30	; 61
     72a:	c7 01       	movw	r24, r14
     72c:	8c de       	rcall	.-744    	; 0x446 <uart_puts>
     72e:	00 d0       	rcall	.+0      	; 0x730 <process+0x2a0>
     730:	00 d0       	rcall	.+0      	; 0x732 <process+0x2a2>
     732:	00 d0       	rcall	.+0      	; 0x734 <process+0x2a4>
     734:	ed b7       	in	r30, 0x3d	; 61
     736:	fe b7       	in	r31, 0x3e	; 62
     738:	31 96       	adiw	r30, 0x01	; 1
     73a:	ad b7       	in	r26, 0x3d	; 61
     73c:	be b7       	in	r27, 0x3e	; 62
     73e:	12 96       	adiw	r26, 0x02	; 2
     740:	fc 92       	st	X, r15
     742:	ee 92       	st	-X, r14
     744:	11 97       	sbiw	r26, 0x01	; 1
     746:	88 ed       	ldi	r24, 0xD8	; 216
     748:	90 e0       	ldi	r25, 0x00	; 0
     74a:	93 83       	std	Z+3, r25	; 0x03
     74c:	82 83       	std	Z+2, r24	; 0x02
     74e:	80 91 db 01 	lds	r24, 0x01DB
     752:	84 83       	std	Z+4, r24	; 0x04
     754:	15 82       	std	Z+5, r1	; 0x05
     756:	94 d1       	rcall	.+808    	; 0xa80 <sprintf>
     758:	ed b7       	in	r30, 0x3d	; 61
     75a:	fe b7       	in	r31, 0x3e	; 62
     75c:	36 96       	adiw	r30, 0x06	; 6
     75e:	0f b6       	in	r0, 0x3f	; 63
     760:	f8 94       	cli
     762:	fe bf       	out	0x3e, r31	; 62
     764:	0f be       	out	0x3f, r0	; 63
     766:	ed bf       	out	0x3d, r30	; 61
     768:	c7 01       	movw	r24, r14
     76a:	6d de       	rcall	.-806    	; 0x446 <uart_puts>
     76c:	8c ee       	ldi	r24, 0xEC	; 236
     76e:	90 e0       	ldi	r25, 0x00	; 0
     770:	6a de       	rcall	.-812    	; 0x446 <uart_puts>
     772:	74 01       	movw	r14, r8
     774:	00 e0       	ldi	r16, 0x00	; 0
     776:	10 e0       	ldi	r17, 0x00	; 0
     778:	c8 01       	movw	r24, r16
     77a:	83 70       	andi	r24, 0x03	; 3
     77c:	90 70       	andi	r25, 0x00	; 0
     77e:	00 97       	sbiw	r24, 0x00	; 0
     780:	11 f4       	brne	.+4      	; 0x786 <process+0x2f6>
     782:	8c e7       	ldi	r24, 0x7C	; 124
     784:	4f de       	rcall	.-866    	; 0x424 <uart_putc>
     786:	d7 01       	movw	r26, r14
     788:	8d 91       	ld	r24, X+
     78a:	7d 01       	movw	r14, r26
     78c:	88 23       	and	r24, r24
     78e:	11 f0       	breq	.+4      	; 0x794 <process+0x304>
     790:	81 e3       	ldi	r24, 0x31	; 49
     792:	01 c0       	rjmp	.+2      	; 0x796 <process+0x306>
     794:	80 e3       	ldi	r24, 0x30	; 48
     796:	46 de       	rcall	.-884    	; 0x424 <uart_putc>
     798:	0f 5f       	subi	r16, 0xFF	; 255
     79a:	1f 4f       	sbci	r17, 0xFF	; 255
     79c:	00 31       	cpi	r16, 0x10	; 16
     79e:	11 05       	cpc	r17, r1
     7a0:	59 f7       	brne	.-42     	; 0x778 <process+0x2e8>
     7a2:	83 ef       	ldi	r24, 0xF3	; 243
     7a4:	90 e0       	ldi	r25, 0x00	; 0
     7a6:	4f de       	rcall	.-866    	; 0x446 <uart_puts>
     7a8:	ed b7       	in	r30, 0x3d	; 61
     7aa:	fe b7       	in	r31, 0x3e	; 62
     7ac:	3a 97       	sbiw	r30, 0x0a	; 10
     7ae:	0f b6       	in	r0, 0x3f	; 63
     7b0:	f8 94       	cli
     7b2:	fe bf       	out	0x3e, r31	; 62
     7b4:	0f be       	out	0x3f, r0	; 63
     7b6:	ed bf       	out	0x3d, r30	; 61
     7b8:	31 96       	adiw	r30, 0x01	; 1
     7ba:	8e 01       	movw	r16, r28
     7bc:	0f 5b       	subi	r16, 0xBF	; 191
     7be:	1f 4f       	sbci	r17, 0xFF	; 255
     7c0:	ad b7       	in	r26, 0x3d	; 61
     7c2:	be b7       	in	r27, 0x3e	; 62
     7c4:	12 96       	adiw	r26, 0x02	; 2
     7c6:	1c 93       	st	X, r17
     7c8:	0e 93       	st	-X, r16
     7ca:	11 97       	sbiw	r26, 0x01	; 1
     7cc:	88 e0       	ldi	r24, 0x08	; 8
     7ce:	91 e0       	ldi	r25, 0x01	; 1
     7d0:	93 83       	std	Z+3, r25	; 0x03
     7d2:	82 83       	std	Z+2, r24	; 0x02
     7d4:	d4 01       	movw	r26, r8
     7d6:	1f 96       	adiw	r26, 0x0f	; 15
     7d8:	8c 91       	ld	r24, X
     7da:	1f 97       	sbiw	r26, 0x0f	; 15
     7dc:	84 83       	std	Z+4, r24	; 0x04
     7de:	15 82       	std	Z+5, r1	; 0x05
     7e0:	8c 91       	ld	r24, X
     7e2:	86 83       	std	Z+6, r24	; 0x06
     7e4:	17 82       	std	Z+7, r1	; 0x07
     7e6:	11 96       	adiw	r26, 0x01	; 1
     7e8:	8c 91       	ld	r24, X
     7ea:	80 87       	std	Z+8, r24	; 0x08
     7ec:	11 86       	std	Z+9, r1	; 0x09
     7ee:	48 d1       	rcall	.+656    	; 0xa80 <sprintf>
     7f0:	ed b7       	in	r30, 0x3d	; 61
     7f2:	fe b7       	in	r31, 0x3e	; 62
     7f4:	3a 96       	adiw	r30, 0x0a	; 10
     7f6:	0f b6       	in	r0, 0x3f	; 63
     7f8:	f8 94       	cli
     7fa:	fe bf       	out	0x3e, r31	; 62
     7fc:	0f be       	out	0x3f, r0	; 63
     7fe:	ed bf       	out	0x3d, r30	; 61
     800:	c8 01       	movw	r24, r16
     802:	21 de       	rcall	.-958    	; 0x446 <uart_puts>
     804:	8d b7       	in	r24, 0x3d	; 61
     806:	9e b7       	in	r25, 0x3e	; 62
     808:	08 97       	sbiw	r24, 0x08	; 8
     80a:	0f b6       	in	r0, 0x3f	; 63
     80c:	f8 94       	cli
     80e:	9e bf       	out	0x3e, r25	; 62
     810:	0f be       	out	0x3f, r0	; 63
     812:	8d bf       	out	0x3d, r24	; 61
     814:	ed b7       	in	r30, 0x3d	; 61
     816:	fe b7       	in	r31, 0x3e	; 62
     818:	31 96       	adiw	r30, 0x01	; 1
     81a:	ad b7       	in	r26, 0x3d	; 61
     81c:	be b7       	in	r27, 0x3e	; 62
     81e:	12 96       	adiw	r26, 0x02	; 2
     820:	1c 93       	st	X, r17
     822:	0e 93       	st	-X, r16
     824:	11 97       	sbiw	r26, 0x01	; 1
     826:	8c e1       	ldi	r24, 0x1C	; 28
     828:	91 e0       	ldi	r25, 0x01	; 1
     82a:	93 83       	std	Z+3, r25	; 0x03
     82c:	82 83       	std	Z+2, r24	; 0x02
     82e:	d4 01       	movw	r26, r8
     830:	1e 96       	adiw	r26, 0x0e	; 14
     832:	8c 91       	ld	r24, X
     834:	1e 97       	sbiw	r26, 0x0e	; 14
     836:	84 83       	std	Z+4, r24	; 0x04
     838:	15 82       	std	Z+5, r1	; 0x05
     83a:	12 96       	adiw	r26, 0x02	; 2
     83c:	8c 91       	ld	r24, X
     83e:	86 83       	std	Z+6, r24	; 0x06
     840:	17 82       	std	Z+7, r1	; 0x07
     842:	1e d1       	rcall	.+572    	; 0xa80 <sprintf>
     844:	ed b7       	in	r30, 0x3d	; 61
     846:	fe b7       	in	r31, 0x3e	; 62
     848:	38 96       	adiw	r30, 0x08	; 8
     84a:	0f b6       	in	r0, 0x3f	; 63
     84c:	f8 94       	cli
     84e:	fe bf       	out	0x3e, r31	; 62
     850:	0f be       	out	0x3f, r0	; 63
     852:	ed bf       	out	0x3d, r30	; 61
     854:	c8 01       	movw	r24, r16
     856:	f7 dd       	rcall	.-1042   	; 0x446 <uart_puts>
     858:	8d b7       	in	r24, 0x3d	; 61
     85a:	9e b7       	in	r25, 0x3e	; 62
     85c:	08 97       	sbiw	r24, 0x08	; 8
     85e:	0f b6       	in	r0, 0x3f	; 63
     860:	f8 94       	cli
     862:	9e bf       	out	0x3e, r25	; 62
     864:	0f be       	out	0x3f, r0	; 63
     866:	8d bf       	out	0x3d, r24	; 61
     868:	ed b7       	in	r30, 0x3d	; 61
     86a:	fe b7       	in	r31, 0x3e	; 62
     86c:	31 96       	adiw	r30, 0x01	; 1
     86e:	ad b7       	in	r26, 0x3d	; 61
     870:	be b7       	in	r27, 0x3e	; 62
     872:	12 96       	adiw	r26, 0x02	; 2
     874:	1c 93       	st	X, r17
     876:	0e 93       	st	-X, r16
     878:	11 97       	sbiw	r26, 0x01	; 1
     87a:	8c e2       	ldi	r24, 0x2C	; 44
     87c:	91 e0       	ldi	r25, 0x01	; 1
     87e:	93 83       	std	Z+3, r25	; 0x03
     880:	82 83       	std	Z+2, r24	; 0x02
     882:	d4 01       	movw	r26, r8
     884:	1d 96       	adiw	r26, 0x0d	; 13
     886:	8c 91       	ld	r24, X
     888:	1d 97       	sbiw	r26, 0x0d	; 13
     88a:	84 83       	std	Z+4, r24	; 0x04
     88c:	15 82       	std	Z+5, r1	; 0x05
     88e:	13 96       	adiw	r26, 0x03	; 3
     890:	8c 91       	ld	r24, X
     892:	86 83       	std	Z+6, r24	; 0x06
     894:	17 82       	std	Z+7, r1	; 0x07
     896:	f4 d0       	rcall	.+488    	; 0xa80 <sprintf>
     898:	ed b7       	in	r30, 0x3d	; 61
     89a:	fe b7       	in	r31, 0x3e	; 62
     89c:	38 96       	adiw	r30, 0x08	; 8
     89e:	0f b6       	in	r0, 0x3f	; 63
     8a0:	f8 94       	cli
     8a2:	fe bf       	out	0x3e, r31	; 62
     8a4:	0f be       	out	0x3f, r0	; 63
     8a6:	ed bf       	out	0x3d, r30	; 61
     8a8:	c8 01       	movw	r24, r16
     8aa:	cd dd       	rcall	.-1126   	; 0x446 <uart_puts>
     8ac:	8d b7       	in	r24, 0x3d	; 61
     8ae:	9e b7       	in	r25, 0x3e	; 62
     8b0:	08 97       	sbiw	r24, 0x08	; 8
     8b2:	0f b6       	in	r0, 0x3f	; 63
     8b4:	f8 94       	cli
     8b6:	9e bf       	out	0x3e, r25	; 62
     8b8:	0f be       	out	0x3f, r0	; 63
     8ba:	8d bf       	out	0x3d, r24	; 61
     8bc:	ed b7       	in	r30, 0x3d	; 61
     8be:	fe b7       	in	r31, 0x3e	; 62
     8c0:	31 96       	adiw	r30, 0x01	; 1
     8c2:	ad b7       	in	r26, 0x3d	; 61
     8c4:	be b7       	in	r27, 0x3e	; 62
     8c6:	12 96       	adiw	r26, 0x02	; 2
     8c8:	1c 93       	st	X, r17
     8ca:	0e 93       	st	-X, r16
     8cc:	11 97       	sbiw	r26, 0x01	; 1
     8ce:	8d e3       	ldi	r24, 0x3D	; 61
     8d0:	91 e0       	ldi	r25, 0x01	; 1
     8d2:	93 83       	std	Z+3, r25	; 0x03
     8d4:	82 83       	std	Z+2, r24	; 0x02
     8d6:	d4 01       	movw	r26, r8
     8d8:	1c 96       	adiw	r26, 0x0c	; 12
     8da:	8c 91       	ld	r24, X
     8dc:	1c 97       	sbiw	r26, 0x0c	; 12
     8de:	84 83       	std	Z+4, r24	; 0x04
     8e0:	15 82       	std	Z+5, r1	; 0x05
     8e2:	14 96       	adiw	r26, 0x04	; 4
     8e4:	8c 91       	ld	r24, X
     8e6:	86 83       	std	Z+6, r24	; 0x06
     8e8:	17 82       	std	Z+7, r1	; 0x07
     8ea:	ca d0       	rcall	.+404    	; 0xa80 <sprintf>
     8ec:	ed b7       	in	r30, 0x3d	; 61
     8ee:	fe b7       	in	r31, 0x3e	; 62
     8f0:	38 96       	adiw	r30, 0x08	; 8
     8f2:	0f b6       	in	r0, 0x3f	; 63
     8f4:	f8 94       	cli
     8f6:	fe bf       	out	0x3e, r31	; 62
     8f8:	0f be       	out	0x3f, r0	; 63
     8fa:	ed bf       	out	0x3d, r30	; 61
     8fc:	c8 01       	movw	r24, r16
     8fe:	a3 dd       	rcall	.-1210   	; 0x446 <uart_puts>
     900:	8d b7       	in	r24, 0x3d	; 61
     902:	9e b7       	in	r25, 0x3e	; 62
     904:	08 97       	sbiw	r24, 0x08	; 8
     906:	0f b6       	in	r0, 0x3f	; 63
     908:	f8 94       	cli
     90a:	9e bf       	out	0x3e, r25	; 62
     90c:	0f be       	out	0x3f, r0	; 63
     90e:	8d bf       	out	0x3d, r24	; 61
     910:	ed b7       	in	r30, 0x3d	; 61
     912:	fe b7       	in	r31, 0x3e	; 62
     914:	31 96       	adiw	r30, 0x01	; 1
     916:	ad b7       	in	r26, 0x3d	; 61
     918:	be b7       	in	r27, 0x3e	; 62
     91a:	12 96       	adiw	r26, 0x02	; 2
     91c:	1c 93       	st	X, r17
     91e:	0e 93       	st	-X, r16
     920:	11 97       	sbiw	r26, 0x01	; 1
     922:	8e e4       	ldi	r24, 0x4E	; 78
     924:	91 e0       	ldi	r25, 0x01	; 1
     926:	93 83       	std	Z+3, r25	; 0x03
     928:	82 83       	std	Z+2, r24	; 0x02
     92a:	d4 01       	movw	r26, r8
     92c:	1b 96       	adiw	r26, 0x0b	; 11
     92e:	8c 91       	ld	r24, X
     930:	1b 97       	sbiw	r26, 0x0b	; 11
     932:	84 83       	std	Z+4, r24	; 0x04
     934:	15 82       	std	Z+5, r1	; 0x05
     936:	15 96       	adiw	r26, 0x05	; 5
     938:	8c 91       	ld	r24, X
     93a:	86 83       	std	Z+6, r24	; 0x06
     93c:	17 82       	std	Z+7, r1	; 0x07
     93e:	a0 d0       	rcall	.+320    	; 0xa80 <sprintf>
     940:	ed b7       	in	r30, 0x3d	; 61
     942:	fe b7       	in	r31, 0x3e	; 62
     944:	38 96       	adiw	r30, 0x08	; 8
     946:	0f b6       	in	r0, 0x3f	; 63
     948:	f8 94       	cli
     94a:	fe bf       	out	0x3e, r31	; 62
     94c:	0f be       	out	0x3f, r0	; 63
     94e:	ed bf       	out	0x3d, r30	; 61
     950:	c8 01       	movw	r24, r16
     952:	79 dd       	rcall	.-1294   	; 0x446 <uart_puts>
     954:	8d b7       	in	r24, 0x3d	; 61
     956:	9e b7       	in	r25, 0x3e	; 62
     958:	08 97       	sbiw	r24, 0x08	; 8
     95a:	0f b6       	in	r0, 0x3f	; 63
     95c:	f8 94       	cli
     95e:	9e bf       	out	0x3e, r25	; 62
     960:	0f be       	out	0x3f, r0	; 63
     962:	8d bf       	out	0x3d, r24	; 61
     964:	ed b7       	in	r30, 0x3d	; 61
     966:	fe b7       	in	r31, 0x3e	; 62
     968:	31 96       	adiw	r30, 0x01	; 1
     96a:	ad b7       	in	r26, 0x3d	; 61
     96c:	be b7       	in	r27, 0x3e	; 62
     96e:	12 96       	adiw	r26, 0x02	; 2
     970:	1c 93       	st	X, r17
     972:	0e 93       	st	-X, r16
     974:	11 97       	sbiw	r26, 0x01	; 1
     976:	8f e5       	ldi	r24, 0x5F	; 95
     978:	91 e0       	ldi	r25, 0x01	; 1
     97a:	93 83       	std	Z+3, r25	; 0x03
     97c:	82 83       	std	Z+2, r24	; 0x02
     97e:	d4 01       	movw	r26, r8
     980:	1a 96       	adiw	r26, 0x0a	; 10
     982:	8c 91       	ld	r24, X
     984:	1a 97       	sbiw	r26, 0x0a	; 10
     986:	84 83       	std	Z+4, r24	; 0x04
     988:	15 82       	std	Z+5, r1	; 0x05
     98a:	16 96       	adiw	r26, 0x06	; 6
     98c:	8c 91       	ld	r24, X
     98e:	86 83       	std	Z+6, r24	; 0x06
     990:	17 82       	std	Z+7, r1	; 0x07
     992:	76 d0       	rcall	.+236    	; 0xa80 <sprintf>
     994:	ed b7       	in	r30, 0x3d	; 61
     996:	fe b7       	in	r31, 0x3e	; 62
     998:	38 96       	adiw	r30, 0x08	; 8
     99a:	0f b6       	in	r0, 0x3f	; 63
     99c:	f8 94       	cli
     99e:	fe bf       	out	0x3e, r31	; 62
     9a0:	0f be       	out	0x3f, r0	; 63
     9a2:	ed bf       	out	0x3d, r30	; 61
     9a4:	c8 01       	movw	r24, r16
     9a6:	4f dd       	rcall	.-1378   	; 0x446 <uart_puts>
     9a8:	8d b7       	in	r24, 0x3d	; 61
     9aa:	9e b7       	in	r25, 0x3e	; 62
     9ac:	0a 97       	sbiw	r24, 0x0a	; 10
     9ae:	0f b6       	in	r0, 0x3f	; 63
     9b0:	f8 94       	cli
     9b2:	9e bf       	out	0x3e, r25	; 62
     9b4:	0f be       	out	0x3f, r0	; 63
     9b6:	8d bf       	out	0x3d, r24	; 61
     9b8:	ed b7       	in	r30, 0x3d	; 61
     9ba:	fe b7       	in	r31, 0x3e	; 62
     9bc:	31 96       	adiw	r30, 0x01	; 1
     9be:	ad b7       	in	r26, 0x3d	; 61
     9c0:	be b7       	in	r27, 0x3e	; 62
     9c2:	12 96       	adiw	r26, 0x02	; 2
     9c4:	1c 93       	st	X, r17
     9c6:	0e 93       	st	-X, r16
     9c8:	11 97       	sbiw	r26, 0x01	; 1
     9ca:	8f e6       	ldi	r24, 0x6F	; 111
     9cc:	91 e0       	ldi	r25, 0x01	; 1
     9ce:	93 83       	std	Z+3, r25	; 0x03
     9d0:	82 83       	std	Z+2, r24	; 0x02
     9d2:	d4 01       	movw	r26, r8
     9d4:	19 96       	adiw	r26, 0x09	; 9
     9d6:	8c 91       	ld	r24, X
     9d8:	19 97       	sbiw	r26, 0x09	; 9
     9da:	84 83       	std	Z+4, r24	; 0x04
     9dc:	15 82       	std	Z+5, r1	; 0x05
     9de:	18 96       	adiw	r26, 0x08	; 8
     9e0:	8c 91       	ld	r24, X
     9e2:	18 97       	sbiw	r26, 0x08	; 8
     9e4:	86 83       	std	Z+6, r24	; 0x06
     9e6:	17 82       	std	Z+7, r1	; 0x07
     9e8:	17 96       	adiw	r26, 0x07	; 7
     9ea:	8c 91       	ld	r24, X
     9ec:	80 87       	std	Z+8, r24	; 0x08
     9ee:	11 86       	std	Z+9, r1	; 0x09
     9f0:	47 d0       	rcall	.+142    	; 0xa80 <sprintf>
     9f2:	ed b7       	in	r30, 0x3d	; 61
     9f4:	fe b7       	in	r31, 0x3e	; 62
     9f6:	3a 96       	adiw	r30, 0x0a	; 10
     9f8:	0f b6       	in	r0, 0x3f	; 63
     9fa:	f8 94       	cli
     9fc:	fe bf       	out	0x3e, r31	; 62
     9fe:	0f be       	out	0x3f, r0	; 63
     a00:	ed bf       	out	0x3d, r30	; 61
     a02:	c8 01       	movw	r24, r16
     a04:	20 dd       	rcall	.-1472   	; 0x446 <uart_puts>
     a06:	cc 55       	subi	r28, 0x5C	; 92
     a08:	df 4f       	sbci	r29, 0xFF	; 255
     a0a:	0f b6       	in	r0, 0x3f	; 63
     a0c:	f8 94       	cli
     a0e:	de bf       	out	0x3e, r29	; 62
     a10:	0f be       	out	0x3f, r0	; 63
     a12:	cd bf       	out	0x3d, r28	; 61
     a14:	df 91       	pop	r29
     a16:	cf 91       	pop	r28
     a18:	1f 91       	pop	r17
     a1a:	0f 91       	pop	r16
     a1c:	ff 90       	pop	r15
     a1e:	ef 90       	pop	r14
     a20:	df 90       	pop	r13
     a22:	bf 90       	pop	r11
     a24:	af 90       	pop	r10
     a26:	9f 90       	pop	r9
     a28:	8f 90       	pop	r8
     a2a:	08 95       	ret

00000a2c <main>:
     a2c:	24 dd       	rcall	.-1464   	; 0x476 <init>
     a2e:	30 dd       	rcall	.-1440   	; 0x490 <process>
     a30:	fe cf       	rjmp	.-4      	; 0xa2e <main+0x2>

00000a32 <__divmodhi4>:
     a32:	97 fb       	bst	r25, 7
     a34:	09 2e       	mov	r0, r25
     a36:	07 26       	eor	r0, r23
     a38:	0a d0       	rcall	.+20     	; 0xa4e <__divmodhi4_neg1>
     a3a:	77 fd       	sbrc	r23, 7
     a3c:	04 d0       	rcall	.+8      	; 0xa46 <__divmodhi4_neg2>
     a3e:	0c d0       	rcall	.+24     	; 0xa58 <__udivmodhi4>
     a40:	06 d0       	rcall	.+12     	; 0xa4e <__divmodhi4_neg1>
     a42:	00 20       	and	r0, r0
     a44:	1a f4       	brpl	.+6      	; 0xa4c <__divmodhi4_exit>

00000a46 <__divmodhi4_neg2>:
     a46:	70 95       	com	r23
     a48:	61 95       	neg	r22
     a4a:	7f 4f       	sbci	r23, 0xFF	; 255

00000a4c <__divmodhi4_exit>:
     a4c:	08 95       	ret

00000a4e <__divmodhi4_neg1>:
     a4e:	f6 f7       	brtc	.-4      	; 0xa4c <__divmodhi4_exit>
     a50:	90 95       	com	r25
     a52:	81 95       	neg	r24
     a54:	9f 4f       	sbci	r25, 0xFF	; 255
     a56:	08 95       	ret

00000a58 <__udivmodhi4>:
     a58:	aa 1b       	sub	r26, r26
     a5a:	bb 1b       	sub	r27, r27
     a5c:	51 e1       	ldi	r21, 0x11	; 17
     a5e:	07 c0       	rjmp	.+14     	; 0xa6e <__udivmodhi4_ep>

00000a60 <__udivmodhi4_loop>:
     a60:	aa 1f       	adc	r26, r26
     a62:	bb 1f       	adc	r27, r27
     a64:	a6 17       	cp	r26, r22
     a66:	b7 07       	cpc	r27, r23
     a68:	10 f0       	brcs	.+4      	; 0xa6e <__udivmodhi4_ep>
     a6a:	a6 1b       	sub	r26, r22
     a6c:	b7 0b       	sbc	r27, r23

00000a6e <__udivmodhi4_ep>:
     a6e:	88 1f       	adc	r24, r24
     a70:	99 1f       	adc	r25, r25
     a72:	5a 95       	dec	r21
     a74:	a9 f7       	brne	.-22     	; 0xa60 <__udivmodhi4_loop>
     a76:	80 95       	com	r24
     a78:	90 95       	com	r25
     a7a:	bc 01       	movw	r22, r24
     a7c:	cd 01       	movw	r24, r26
     a7e:	08 95       	ret

00000a80 <sprintf>:
     a80:	ae e0       	ldi	r26, 0x0E	; 14
     a82:	b0 e0       	ldi	r27, 0x00	; 0
     a84:	e5 e4       	ldi	r30, 0x45	; 69
     a86:	f5 e0       	ldi	r31, 0x05	; 5
     a88:	97 c2       	rjmp	.+1326   	; 0xfb8 <__prologue_saves__+0x1c>
     a8a:	0d 89       	ldd	r16, Y+21	; 0x15
     a8c:	1e 89       	ldd	r17, Y+22	; 0x16
     a8e:	86 e0       	ldi	r24, 0x06	; 6
     a90:	8c 83       	std	Y+4, r24	; 0x04
     a92:	1a 83       	std	Y+2, r17	; 0x02
     a94:	09 83       	std	Y+1, r16	; 0x01
     a96:	8f ef       	ldi	r24, 0xFF	; 255
     a98:	9f e7       	ldi	r25, 0x7F	; 127
     a9a:	9e 83       	std	Y+6, r25	; 0x06
     a9c:	8d 83       	std	Y+5, r24	; 0x05
     a9e:	ae 01       	movw	r20, r28
     aa0:	47 5e       	subi	r20, 0xE7	; 231
     aa2:	5f 4f       	sbci	r21, 0xFF	; 255
     aa4:	ce 01       	movw	r24, r28
     aa6:	01 96       	adiw	r24, 0x01	; 1
     aa8:	6f 89       	ldd	r22, Y+23	; 0x17
     aaa:	78 8d       	ldd	r23, Y+24	; 0x18
     aac:	08 d0       	rcall	.+16     	; 0xabe <vfprintf>
     aae:	ef 81       	ldd	r30, Y+7	; 0x07
     ab0:	f8 85       	ldd	r31, Y+8	; 0x08
     ab2:	e0 0f       	add	r30, r16
     ab4:	f1 1f       	adc	r31, r17
     ab6:	10 82       	st	Z, r1
     ab8:	2e 96       	adiw	r28, 0x0e	; 14
     aba:	e4 e0       	ldi	r30, 0x04	; 4
     abc:	99 c2       	rjmp	.+1330   	; 0xff0 <__epilogue_restores__+0x1c>

00000abe <vfprintf>:
     abe:	ad e0       	ldi	r26, 0x0D	; 13
     ac0:	b0 e0       	ldi	r27, 0x00	; 0
     ac2:	e4 e6       	ldi	r30, 0x64	; 100
     ac4:	f5 e0       	ldi	r31, 0x05	; 5
     ac6:	6a c2       	rjmp	.+1236   	; 0xf9c <__prologue_saves__>
     ac8:	3c 01       	movw	r6, r24
     aca:	7d 87       	std	Y+13, r23	; 0x0d
     acc:	6c 87       	std	Y+12, r22	; 0x0c
     ace:	5a 01       	movw	r10, r20
     ad0:	fc 01       	movw	r30, r24
     ad2:	17 82       	std	Z+7, r1	; 0x07
     ad4:	16 82       	std	Z+6, r1	; 0x06
     ad6:	83 81       	ldd	r24, Z+3	; 0x03
     ad8:	81 ff       	sbrs	r24, 1
     ada:	bb c1       	rjmp	.+886    	; 0xe52 <vfprintf+0x394>
     adc:	2e 01       	movw	r4, r28
     ade:	08 94       	sec
     ae0:	41 1c       	adc	r4, r1
     ae2:	51 1c       	adc	r5, r1
     ae4:	f3 01       	movw	r30, r6
     ae6:	93 81       	ldd	r25, Z+3	; 0x03
     ae8:	ec 85       	ldd	r30, Y+12	; 0x0c
     aea:	fd 85       	ldd	r31, Y+13	; 0x0d
     aec:	93 fd       	sbrc	r25, 3
     aee:	85 91       	lpm	r24, Z+
     af0:	93 ff       	sbrs	r25, 3
     af2:	81 91       	ld	r24, Z+
     af4:	fd 87       	std	Y+13, r31	; 0x0d
     af6:	ec 87       	std	Y+12, r30	; 0x0c
     af8:	88 23       	and	r24, r24
     afa:	09 f4       	brne	.+2      	; 0xafe <vfprintf+0x40>
     afc:	a6 c1       	rjmp	.+844    	; 0xe4a <vfprintf+0x38c>
     afe:	85 32       	cpi	r24, 0x25	; 37
     b00:	41 f4       	brne	.+16     	; 0xb12 <vfprintf+0x54>
     b02:	93 fd       	sbrc	r25, 3
     b04:	85 91       	lpm	r24, Z+
     b06:	93 ff       	sbrs	r25, 3
     b08:	81 91       	ld	r24, Z+
     b0a:	fd 87       	std	Y+13, r31	; 0x0d
     b0c:	ec 87       	std	Y+12, r30	; 0x0c
     b0e:	85 32       	cpi	r24, 0x25	; 37
     b10:	21 f4       	brne	.+8      	; 0xb1a <vfprintf+0x5c>
     b12:	90 e0       	ldi	r25, 0x00	; 0
     b14:	b3 01       	movw	r22, r6
     b16:	b8 d1       	rcall	.+880    	; 0xe88 <fputc>
     b18:	e5 cf       	rjmp	.-54     	; 0xae4 <vfprintf+0x26>
     b1a:	ff 24       	eor	r15, r15
     b1c:	ee 24       	eor	r14, r14
     b1e:	10 e0       	ldi	r17, 0x00	; 0
     b20:	10 32       	cpi	r17, 0x20	; 32
     b22:	b0 f4       	brcc	.+44     	; 0xb50 <vfprintf+0x92>
     b24:	8b 32       	cpi	r24, 0x2B	; 43
     b26:	69 f0       	breq	.+26     	; 0xb42 <vfprintf+0x84>
     b28:	8c 32       	cpi	r24, 0x2C	; 44
     b2a:	28 f4       	brcc	.+10     	; 0xb36 <vfprintf+0x78>
     b2c:	80 32       	cpi	r24, 0x20	; 32
     b2e:	51 f0       	breq	.+20     	; 0xb44 <vfprintf+0x86>
     b30:	83 32       	cpi	r24, 0x23	; 35
     b32:	71 f4       	brne	.+28     	; 0xb50 <vfprintf+0x92>
     b34:	0b c0       	rjmp	.+22     	; 0xb4c <vfprintf+0x8e>
     b36:	8d 32       	cpi	r24, 0x2D	; 45
     b38:	39 f0       	breq	.+14     	; 0xb48 <vfprintf+0x8a>
     b3a:	80 33       	cpi	r24, 0x30	; 48
     b3c:	49 f4       	brne	.+18     	; 0xb50 <vfprintf+0x92>
     b3e:	11 60       	ori	r17, 0x01	; 1
     b40:	2c c0       	rjmp	.+88     	; 0xb9a <vfprintf+0xdc>
     b42:	12 60       	ori	r17, 0x02	; 2
     b44:	14 60       	ori	r17, 0x04	; 4
     b46:	29 c0       	rjmp	.+82     	; 0xb9a <vfprintf+0xdc>
     b48:	18 60       	ori	r17, 0x08	; 8
     b4a:	27 c0       	rjmp	.+78     	; 0xb9a <vfprintf+0xdc>
     b4c:	10 61       	ori	r17, 0x10	; 16
     b4e:	25 c0       	rjmp	.+74     	; 0xb9a <vfprintf+0xdc>
     b50:	17 fd       	sbrc	r17, 7
     b52:	2e c0       	rjmp	.+92     	; 0xbb0 <vfprintf+0xf2>
     b54:	28 2f       	mov	r18, r24
     b56:	20 53       	subi	r18, 0x30	; 48
     b58:	2a 30       	cpi	r18, 0x0A	; 10
     b5a:	98 f4       	brcc	.+38     	; 0xb82 <vfprintf+0xc4>
     b5c:	16 ff       	sbrs	r17, 6
     b5e:	08 c0       	rjmp	.+16     	; 0xb70 <vfprintf+0xb2>
     b60:	8f 2d       	mov	r24, r15
     b62:	88 0f       	add	r24, r24
     b64:	f8 2e       	mov	r15, r24
     b66:	ff 0c       	add	r15, r15
     b68:	ff 0c       	add	r15, r15
     b6a:	f8 0e       	add	r15, r24
     b6c:	f2 0e       	add	r15, r18
     b6e:	15 c0       	rjmp	.+42     	; 0xb9a <vfprintf+0xdc>
     b70:	8e 2d       	mov	r24, r14
     b72:	88 0f       	add	r24, r24
     b74:	e8 2e       	mov	r14, r24
     b76:	ee 0c       	add	r14, r14
     b78:	ee 0c       	add	r14, r14
     b7a:	e8 0e       	add	r14, r24
     b7c:	e2 0e       	add	r14, r18
     b7e:	10 62       	ori	r17, 0x20	; 32
     b80:	0c c0       	rjmp	.+24     	; 0xb9a <vfprintf+0xdc>
     b82:	8e 32       	cpi	r24, 0x2E	; 46
     b84:	21 f4       	brne	.+8      	; 0xb8e <vfprintf+0xd0>
     b86:	16 fd       	sbrc	r17, 6
     b88:	60 c1       	rjmp	.+704    	; 0xe4a <vfprintf+0x38c>
     b8a:	10 64       	ori	r17, 0x40	; 64
     b8c:	06 c0       	rjmp	.+12     	; 0xb9a <vfprintf+0xdc>
     b8e:	8c 36       	cpi	r24, 0x6C	; 108
     b90:	11 f4       	brne	.+4      	; 0xb96 <vfprintf+0xd8>
     b92:	10 68       	ori	r17, 0x80	; 128
     b94:	02 c0       	rjmp	.+4      	; 0xb9a <vfprintf+0xdc>
     b96:	88 36       	cpi	r24, 0x68	; 104
     b98:	59 f4       	brne	.+22     	; 0xbb0 <vfprintf+0xf2>
     b9a:	ec 85       	ldd	r30, Y+12	; 0x0c
     b9c:	fd 85       	ldd	r31, Y+13	; 0x0d
     b9e:	93 fd       	sbrc	r25, 3
     ba0:	85 91       	lpm	r24, Z+
     ba2:	93 ff       	sbrs	r25, 3
     ba4:	81 91       	ld	r24, Z+
     ba6:	fd 87       	std	Y+13, r31	; 0x0d
     ba8:	ec 87       	std	Y+12, r30	; 0x0c
     baa:	88 23       	and	r24, r24
     bac:	09 f0       	breq	.+2      	; 0xbb0 <vfprintf+0xf2>
     bae:	b8 cf       	rjmp	.-144    	; 0xb20 <vfprintf+0x62>
     bb0:	98 2f       	mov	r25, r24
     bb2:	95 54       	subi	r25, 0x45	; 69
     bb4:	93 30       	cpi	r25, 0x03	; 3
     bb6:	18 f0       	brcs	.+6      	; 0xbbe <vfprintf+0x100>
     bb8:	90 52       	subi	r25, 0x20	; 32
     bba:	93 30       	cpi	r25, 0x03	; 3
     bbc:	38 f4       	brcc	.+14     	; 0xbcc <vfprintf+0x10e>
     bbe:	24 e0       	ldi	r18, 0x04	; 4
     bc0:	30 e0       	ldi	r19, 0x00	; 0
     bc2:	a2 0e       	add	r10, r18
     bc4:	b3 1e       	adc	r11, r19
     bc6:	3f e3       	ldi	r19, 0x3F	; 63
     bc8:	39 83       	std	Y+1, r19	; 0x01
     bca:	0f c0       	rjmp	.+30     	; 0xbea <vfprintf+0x12c>
     bcc:	83 36       	cpi	r24, 0x63	; 99
     bce:	31 f0       	breq	.+12     	; 0xbdc <vfprintf+0x11e>
     bd0:	83 37       	cpi	r24, 0x73	; 115
     bd2:	81 f0       	breq	.+32     	; 0xbf4 <vfprintf+0x136>
     bd4:	83 35       	cpi	r24, 0x53	; 83
     bd6:	09 f0       	breq	.+2      	; 0xbda <vfprintf+0x11c>
     bd8:	56 c0       	rjmp	.+172    	; 0xc86 <vfprintf+0x1c8>
     bda:	21 c0       	rjmp	.+66     	; 0xc1e <vfprintf+0x160>
     bdc:	f5 01       	movw	r30, r10
     bde:	80 81       	ld	r24, Z
     be0:	89 83       	std	Y+1, r24	; 0x01
     be2:	22 e0       	ldi	r18, 0x02	; 2
     be4:	30 e0       	ldi	r19, 0x00	; 0
     be6:	a2 0e       	add	r10, r18
     be8:	b3 1e       	adc	r11, r19
     bea:	21 e0       	ldi	r18, 0x01	; 1
     bec:	c2 2e       	mov	r12, r18
     bee:	d1 2c       	mov	r13, r1
     bf0:	42 01       	movw	r8, r4
     bf2:	13 c0       	rjmp	.+38     	; 0xc1a <vfprintf+0x15c>
     bf4:	92 e0       	ldi	r25, 0x02	; 2
     bf6:	29 2e       	mov	r2, r25
     bf8:	31 2c       	mov	r3, r1
     bfa:	2a 0c       	add	r2, r10
     bfc:	3b 1c       	adc	r3, r11
     bfe:	f5 01       	movw	r30, r10
     c00:	80 80       	ld	r8, Z
     c02:	91 80       	ldd	r9, Z+1	; 0x01
     c04:	16 ff       	sbrs	r17, 6
     c06:	03 c0       	rjmp	.+6      	; 0xc0e <vfprintf+0x150>
     c08:	6f 2d       	mov	r22, r15
     c0a:	70 e0       	ldi	r23, 0x00	; 0
     c0c:	02 c0       	rjmp	.+4      	; 0xc12 <vfprintf+0x154>
     c0e:	6f ef       	ldi	r22, 0xFF	; 255
     c10:	7f ef       	ldi	r23, 0xFF	; 255
     c12:	c4 01       	movw	r24, r8
     c14:	2e d1       	rcall	.+604    	; 0xe72 <strnlen>
     c16:	6c 01       	movw	r12, r24
     c18:	51 01       	movw	r10, r2
     c1a:	1f 77       	andi	r17, 0x7F	; 127
     c1c:	14 c0       	rjmp	.+40     	; 0xc46 <vfprintf+0x188>
     c1e:	82 e0       	ldi	r24, 0x02	; 2
     c20:	28 2e       	mov	r2, r24
     c22:	31 2c       	mov	r3, r1
     c24:	2a 0c       	add	r2, r10
     c26:	3b 1c       	adc	r3, r11
     c28:	f5 01       	movw	r30, r10
     c2a:	80 80       	ld	r8, Z
     c2c:	91 80       	ldd	r9, Z+1	; 0x01
     c2e:	16 ff       	sbrs	r17, 6
     c30:	03 c0       	rjmp	.+6      	; 0xc38 <vfprintf+0x17a>
     c32:	6f 2d       	mov	r22, r15
     c34:	70 e0       	ldi	r23, 0x00	; 0
     c36:	02 c0       	rjmp	.+4      	; 0xc3c <vfprintf+0x17e>
     c38:	6f ef       	ldi	r22, 0xFF	; 255
     c3a:	7f ef       	ldi	r23, 0xFF	; 255
     c3c:	c4 01       	movw	r24, r8
     c3e:	0e d1       	rcall	.+540    	; 0xe5c <strnlen_P>
     c40:	6c 01       	movw	r12, r24
     c42:	10 68       	ori	r17, 0x80	; 128
     c44:	51 01       	movw	r10, r2
     c46:	13 fd       	sbrc	r17, 3
     c48:	1a c0       	rjmp	.+52     	; 0xc7e <vfprintf+0x1c0>
     c4a:	05 c0       	rjmp	.+10     	; 0xc56 <vfprintf+0x198>
     c4c:	80 e2       	ldi	r24, 0x20	; 32
     c4e:	90 e0       	ldi	r25, 0x00	; 0
     c50:	b3 01       	movw	r22, r6
     c52:	1a d1       	rcall	.+564    	; 0xe88 <fputc>
     c54:	ea 94       	dec	r14
     c56:	8e 2d       	mov	r24, r14
     c58:	90 e0       	ldi	r25, 0x00	; 0
     c5a:	c8 16       	cp	r12, r24
     c5c:	d9 06       	cpc	r13, r25
     c5e:	b0 f3       	brcs	.-20     	; 0xc4c <vfprintf+0x18e>
     c60:	0e c0       	rjmp	.+28     	; 0xc7e <vfprintf+0x1c0>
     c62:	f4 01       	movw	r30, r8
     c64:	17 fd       	sbrc	r17, 7
     c66:	85 91       	lpm	r24, Z+
     c68:	17 ff       	sbrs	r17, 7
     c6a:	81 91       	ld	r24, Z+
     c6c:	4f 01       	movw	r8, r30
     c6e:	90 e0       	ldi	r25, 0x00	; 0
     c70:	b3 01       	movw	r22, r6
     c72:	0a d1       	rcall	.+532    	; 0xe88 <fputc>
     c74:	e1 10       	cpse	r14, r1
     c76:	ea 94       	dec	r14
     c78:	08 94       	sec
     c7a:	c1 08       	sbc	r12, r1
     c7c:	d1 08       	sbc	r13, r1
     c7e:	c1 14       	cp	r12, r1
     c80:	d1 04       	cpc	r13, r1
     c82:	79 f7       	brne	.-34     	; 0xc62 <vfprintf+0x1a4>
     c84:	df c0       	rjmp	.+446    	; 0xe44 <vfprintf+0x386>
     c86:	84 36       	cpi	r24, 0x64	; 100
     c88:	11 f0       	breq	.+4      	; 0xc8e <vfprintf+0x1d0>
     c8a:	89 36       	cpi	r24, 0x69	; 105
     c8c:	49 f5       	brne	.+82     	; 0xce0 <vfprintf+0x222>
     c8e:	f5 01       	movw	r30, r10
     c90:	17 ff       	sbrs	r17, 7
     c92:	07 c0       	rjmp	.+14     	; 0xca2 <vfprintf+0x1e4>
     c94:	80 81       	ld	r24, Z
     c96:	91 81       	ldd	r25, Z+1	; 0x01
     c98:	a2 81       	ldd	r26, Z+2	; 0x02
     c9a:	b3 81       	ldd	r27, Z+3	; 0x03
     c9c:	24 e0       	ldi	r18, 0x04	; 4
     c9e:	30 e0       	ldi	r19, 0x00	; 0
     ca0:	08 c0       	rjmp	.+16     	; 0xcb2 <vfprintf+0x1f4>
     ca2:	80 81       	ld	r24, Z
     ca4:	91 81       	ldd	r25, Z+1	; 0x01
     ca6:	aa 27       	eor	r26, r26
     ca8:	97 fd       	sbrc	r25, 7
     caa:	a0 95       	com	r26
     cac:	ba 2f       	mov	r27, r26
     cae:	22 e0       	ldi	r18, 0x02	; 2
     cb0:	30 e0       	ldi	r19, 0x00	; 0
     cb2:	a2 0e       	add	r10, r18
     cb4:	b3 1e       	adc	r11, r19
     cb6:	01 2f       	mov	r16, r17
     cb8:	0f 76       	andi	r16, 0x6F	; 111
     cba:	b7 ff       	sbrs	r27, 7
     cbc:	08 c0       	rjmp	.+16     	; 0xcce <vfprintf+0x210>
     cbe:	b0 95       	com	r27
     cc0:	a0 95       	com	r26
     cc2:	90 95       	com	r25
     cc4:	81 95       	neg	r24
     cc6:	9f 4f       	sbci	r25, 0xFF	; 255
     cc8:	af 4f       	sbci	r26, 0xFF	; 255
     cca:	bf 4f       	sbci	r27, 0xFF	; 255
     ccc:	00 68       	ori	r16, 0x80	; 128
     cce:	bc 01       	movw	r22, r24
     cd0:	cd 01       	movw	r24, r26
     cd2:	a2 01       	movw	r20, r4
     cd4:	2a e0       	ldi	r18, 0x0A	; 10
     cd6:	30 e0       	ldi	r19, 0x00	; 0
     cd8:	03 d1       	rcall	.+518    	; 0xee0 <__ultoa_invert>
     cda:	d8 2e       	mov	r13, r24
     cdc:	d4 18       	sub	r13, r4
     cde:	3e c0       	rjmp	.+124    	; 0xd5c <vfprintf+0x29e>
     ce0:	85 37       	cpi	r24, 0x75	; 117
     ce2:	21 f4       	brne	.+8      	; 0xcec <vfprintf+0x22e>
     ce4:	1f 7e       	andi	r17, 0xEF	; 239
     ce6:	2a e0       	ldi	r18, 0x0A	; 10
     ce8:	30 e0       	ldi	r19, 0x00	; 0
     cea:	20 c0       	rjmp	.+64     	; 0xd2c <vfprintf+0x26e>
     cec:	19 7f       	andi	r17, 0xF9	; 249
     cee:	8f 36       	cpi	r24, 0x6F	; 111
     cf0:	a9 f0       	breq	.+42     	; 0xd1c <vfprintf+0x25e>
     cf2:	80 37       	cpi	r24, 0x70	; 112
     cf4:	20 f4       	brcc	.+8      	; 0xcfe <vfprintf+0x240>
     cf6:	88 35       	cpi	r24, 0x58	; 88
     cf8:	09 f0       	breq	.+2      	; 0xcfc <vfprintf+0x23e>
     cfa:	a7 c0       	rjmp	.+334    	; 0xe4a <vfprintf+0x38c>
     cfc:	0b c0       	rjmp	.+22     	; 0xd14 <vfprintf+0x256>
     cfe:	80 37       	cpi	r24, 0x70	; 112
     d00:	21 f0       	breq	.+8      	; 0xd0a <vfprintf+0x24c>
     d02:	88 37       	cpi	r24, 0x78	; 120
     d04:	09 f0       	breq	.+2      	; 0xd08 <vfprintf+0x24a>
     d06:	a1 c0       	rjmp	.+322    	; 0xe4a <vfprintf+0x38c>
     d08:	01 c0       	rjmp	.+2      	; 0xd0c <vfprintf+0x24e>
     d0a:	10 61       	ori	r17, 0x10	; 16
     d0c:	14 ff       	sbrs	r17, 4
     d0e:	09 c0       	rjmp	.+18     	; 0xd22 <vfprintf+0x264>
     d10:	14 60       	ori	r17, 0x04	; 4
     d12:	07 c0       	rjmp	.+14     	; 0xd22 <vfprintf+0x264>
     d14:	14 ff       	sbrs	r17, 4
     d16:	08 c0       	rjmp	.+16     	; 0xd28 <vfprintf+0x26a>
     d18:	16 60       	ori	r17, 0x06	; 6
     d1a:	06 c0       	rjmp	.+12     	; 0xd28 <vfprintf+0x26a>
     d1c:	28 e0       	ldi	r18, 0x08	; 8
     d1e:	30 e0       	ldi	r19, 0x00	; 0
     d20:	05 c0       	rjmp	.+10     	; 0xd2c <vfprintf+0x26e>
     d22:	20 e1       	ldi	r18, 0x10	; 16
     d24:	30 e0       	ldi	r19, 0x00	; 0
     d26:	02 c0       	rjmp	.+4      	; 0xd2c <vfprintf+0x26e>
     d28:	20 e1       	ldi	r18, 0x10	; 16
     d2a:	32 e0       	ldi	r19, 0x02	; 2
     d2c:	f5 01       	movw	r30, r10
     d2e:	17 ff       	sbrs	r17, 7
     d30:	07 c0       	rjmp	.+14     	; 0xd40 <vfprintf+0x282>
     d32:	60 81       	ld	r22, Z
     d34:	71 81       	ldd	r23, Z+1	; 0x01
     d36:	82 81       	ldd	r24, Z+2	; 0x02
     d38:	93 81       	ldd	r25, Z+3	; 0x03
     d3a:	44 e0       	ldi	r20, 0x04	; 4
     d3c:	50 e0       	ldi	r21, 0x00	; 0
     d3e:	06 c0       	rjmp	.+12     	; 0xd4c <vfprintf+0x28e>
     d40:	60 81       	ld	r22, Z
     d42:	71 81       	ldd	r23, Z+1	; 0x01
     d44:	80 e0       	ldi	r24, 0x00	; 0
     d46:	90 e0       	ldi	r25, 0x00	; 0
     d48:	42 e0       	ldi	r20, 0x02	; 2
     d4a:	50 e0       	ldi	r21, 0x00	; 0
     d4c:	a4 0e       	add	r10, r20
     d4e:	b5 1e       	adc	r11, r21
     d50:	a2 01       	movw	r20, r4
     d52:	c6 d0       	rcall	.+396    	; 0xee0 <__ultoa_invert>
     d54:	d8 2e       	mov	r13, r24
     d56:	d4 18       	sub	r13, r4
     d58:	01 2f       	mov	r16, r17
     d5a:	0f 77       	andi	r16, 0x7F	; 127
     d5c:	06 ff       	sbrs	r16, 6
     d5e:	09 c0       	rjmp	.+18     	; 0xd72 <vfprintf+0x2b4>
     d60:	0e 7f       	andi	r16, 0xFE	; 254
     d62:	df 14       	cp	r13, r15
     d64:	30 f4       	brcc	.+12     	; 0xd72 <vfprintf+0x2b4>
     d66:	04 ff       	sbrs	r16, 4
     d68:	06 c0       	rjmp	.+12     	; 0xd76 <vfprintf+0x2b8>
     d6a:	02 fd       	sbrc	r16, 2
     d6c:	04 c0       	rjmp	.+8      	; 0xd76 <vfprintf+0x2b8>
     d6e:	0f 7e       	andi	r16, 0xEF	; 239
     d70:	02 c0       	rjmp	.+4      	; 0xd76 <vfprintf+0x2b8>
     d72:	1d 2d       	mov	r17, r13
     d74:	01 c0       	rjmp	.+2      	; 0xd78 <vfprintf+0x2ba>
     d76:	1f 2d       	mov	r17, r15
     d78:	80 2f       	mov	r24, r16
     d7a:	90 e0       	ldi	r25, 0x00	; 0
     d7c:	04 ff       	sbrs	r16, 4
     d7e:	0c c0       	rjmp	.+24     	; 0xd98 <vfprintf+0x2da>
     d80:	fe 01       	movw	r30, r28
     d82:	ed 0d       	add	r30, r13
     d84:	f1 1d       	adc	r31, r1
     d86:	20 81       	ld	r18, Z
     d88:	20 33       	cpi	r18, 0x30	; 48
     d8a:	11 f4       	brne	.+4      	; 0xd90 <vfprintf+0x2d2>
     d8c:	09 7e       	andi	r16, 0xE9	; 233
     d8e:	09 c0       	rjmp	.+18     	; 0xda2 <vfprintf+0x2e4>
     d90:	02 ff       	sbrs	r16, 2
     d92:	06 c0       	rjmp	.+12     	; 0xda0 <vfprintf+0x2e2>
     d94:	1e 5f       	subi	r17, 0xFE	; 254
     d96:	05 c0       	rjmp	.+10     	; 0xda2 <vfprintf+0x2e4>
     d98:	86 78       	andi	r24, 0x86	; 134
     d9a:	90 70       	andi	r25, 0x00	; 0
     d9c:	00 97       	sbiw	r24, 0x00	; 0
     d9e:	09 f0       	breq	.+2      	; 0xda2 <vfprintf+0x2e4>
     da0:	1f 5f       	subi	r17, 0xFF	; 255
     da2:	80 2e       	mov	r8, r16
     da4:	99 24       	eor	r9, r9
     da6:	03 fd       	sbrc	r16, 3
     da8:	11 c0       	rjmp	.+34     	; 0xdcc <vfprintf+0x30e>
     daa:	00 ff       	sbrs	r16, 0
     dac:	0c c0       	rjmp	.+24     	; 0xdc6 <vfprintf+0x308>
     dae:	fd 2c       	mov	r15, r13
     db0:	1e 15       	cp	r17, r14
     db2:	48 f4       	brcc	.+18     	; 0xdc6 <vfprintf+0x308>
     db4:	fe 0c       	add	r15, r14
     db6:	f1 1a       	sub	r15, r17
     db8:	1e 2d       	mov	r17, r14
     dba:	05 c0       	rjmp	.+10     	; 0xdc6 <vfprintf+0x308>
     dbc:	80 e2       	ldi	r24, 0x20	; 32
     dbe:	90 e0       	ldi	r25, 0x00	; 0
     dc0:	b3 01       	movw	r22, r6
     dc2:	62 d0       	rcall	.+196    	; 0xe88 <fputc>
     dc4:	1f 5f       	subi	r17, 0xFF	; 255
     dc6:	1e 15       	cp	r17, r14
     dc8:	c8 f3       	brcs	.-14     	; 0xdbc <vfprintf+0x2fe>
     dca:	04 c0       	rjmp	.+8      	; 0xdd4 <vfprintf+0x316>
     dcc:	1e 15       	cp	r17, r14
     dce:	10 f4       	brcc	.+4      	; 0xdd4 <vfprintf+0x316>
     dd0:	e1 1a       	sub	r14, r17
     dd2:	01 c0       	rjmp	.+2      	; 0xdd6 <vfprintf+0x318>
     dd4:	ee 24       	eor	r14, r14
     dd6:	84 fe       	sbrs	r8, 4
     dd8:	0e c0       	rjmp	.+28     	; 0xdf6 <vfprintf+0x338>
     dda:	80 e3       	ldi	r24, 0x30	; 48
     ddc:	90 e0       	ldi	r25, 0x00	; 0
     dde:	b3 01       	movw	r22, r6
     de0:	53 d0       	rcall	.+166    	; 0xe88 <fputc>
     de2:	82 fe       	sbrs	r8, 2
     de4:	1d c0       	rjmp	.+58     	; 0xe20 <vfprintf+0x362>
     de6:	81 fe       	sbrs	r8, 1
     de8:	03 c0       	rjmp	.+6      	; 0xdf0 <vfprintf+0x332>
     dea:	88 e5       	ldi	r24, 0x58	; 88
     dec:	90 e0       	ldi	r25, 0x00	; 0
     dee:	10 c0       	rjmp	.+32     	; 0xe10 <vfprintf+0x352>
     df0:	88 e7       	ldi	r24, 0x78	; 120
     df2:	90 e0       	ldi	r25, 0x00	; 0
     df4:	0d c0       	rjmp	.+26     	; 0xe10 <vfprintf+0x352>
     df6:	c4 01       	movw	r24, r8
     df8:	86 78       	andi	r24, 0x86	; 134
     dfa:	90 70       	andi	r25, 0x00	; 0
     dfc:	00 97       	sbiw	r24, 0x00	; 0
     dfe:	81 f0       	breq	.+32     	; 0xe20 <vfprintf+0x362>
     e00:	81 fc       	sbrc	r8, 1
     e02:	02 c0       	rjmp	.+4      	; 0xe08 <vfprintf+0x34a>
     e04:	80 e2       	ldi	r24, 0x20	; 32
     e06:	01 c0       	rjmp	.+2      	; 0xe0a <vfprintf+0x34c>
     e08:	8b e2       	ldi	r24, 0x2B	; 43
     e0a:	07 fd       	sbrc	r16, 7
     e0c:	8d e2       	ldi	r24, 0x2D	; 45
     e0e:	90 e0       	ldi	r25, 0x00	; 0
     e10:	b3 01       	movw	r22, r6
     e12:	3a d0       	rcall	.+116    	; 0xe88 <fputc>
     e14:	05 c0       	rjmp	.+10     	; 0xe20 <vfprintf+0x362>
     e16:	80 e3       	ldi	r24, 0x30	; 48
     e18:	90 e0       	ldi	r25, 0x00	; 0
     e1a:	b3 01       	movw	r22, r6
     e1c:	35 d0       	rcall	.+106    	; 0xe88 <fputc>
     e1e:	fa 94       	dec	r15
     e20:	df 14       	cp	r13, r15
     e22:	c8 f3       	brcs	.-14     	; 0xe16 <vfprintf+0x358>
     e24:	da 94       	dec	r13
     e26:	f2 01       	movw	r30, r4
     e28:	ed 0d       	add	r30, r13
     e2a:	f1 1d       	adc	r31, r1
     e2c:	80 81       	ld	r24, Z
     e2e:	90 e0       	ldi	r25, 0x00	; 0
     e30:	b3 01       	movw	r22, r6
     e32:	2a d0       	rcall	.+84     	; 0xe88 <fputc>
     e34:	dd 20       	and	r13, r13
     e36:	b1 f7       	brne	.-20     	; 0xe24 <vfprintf+0x366>
     e38:	05 c0       	rjmp	.+10     	; 0xe44 <vfprintf+0x386>
     e3a:	80 e2       	ldi	r24, 0x20	; 32
     e3c:	90 e0       	ldi	r25, 0x00	; 0
     e3e:	b3 01       	movw	r22, r6
     e40:	23 d0       	rcall	.+70     	; 0xe88 <fputc>
     e42:	ea 94       	dec	r14
     e44:	ee 20       	and	r14, r14
     e46:	c9 f7       	brne	.-14     	; 0xe3a <vfprintf+0x37c>
     e48:	4d ce       	rjmp	.-870    	; 0xae4 <vfprintf+0x26>
     e4a:	f3 01       	movw	r30, r6
     e4c:	86 81       	ldd	r24, Z+6	; 0x06
     e4e:	97 81       	ldd	r25, Z+7	; 0x07
     e50:	02 c0       	rjmp	.+4      	; 0xe56 <vfprintf+0x398>
     e52:	8f ef       	ldi	r24, 0xFF	; 255
     e54:	9f ef       	ldi	r25, 0xFF	; 255
     e56:	2d 96       	adiw	r28, 0x0d	; 13
     e58:	e2 e1       	ldi	r30, 0x12	; 18
     e5a:	bc c0       	rjmp	.+376    	; 0xfd4 <__epilogue_restores__>

00000e5c <strnlen_P>:
     e5c:	fc 01       	movw	r30, r24
     e5e:	05 90       	lpm	r0, Z+
     e60:	61 50       	subi	r22, 0x01	; 1
     e62:	70 40       	sbci	r23, 0x00	; 0
     e64:	01 10       	cpse	r0, r1
     e66:	d8 f7       	brcc	.-10     	; 0xe5e <strnlen_P+0x2>
     e68:	80 95       	com	r24
     e6a:	90 95       	com	r25
     e6c:	8e 0f       	add	r24, r30
     e6e:	9f 1f       	adc	r25, r31
     e70:	08 95       	ret

00000e72 <strnlen>:
     e72:	fc 01       	movw	r30, r24
     e74:	61 50       	subi	r22, 0x01	; 1
     e76:	70 40       	sbci	r23, 0x00	; 0
     e78:	01 90       	ld	r0, Z+
     e7a:	01 10       	cpse	r0, r1
     e7c:	d8 f7       	brcc	.-10     	; 0xe74 <strnlen+0x2>
     e7e:	80 95       	com	r24
     e80:	90 95       	com	r25
     e82:	8e 0f       	add	r24, r30
     e84:	9f 1f       	adc	r25, r31
     e86:	08 95       	ret

00000e88 <fputc>:
     e88:	0f 93       	push	r16
     e8a:	1f 93       	push	r17
     e8c:	cf 93       	push	r28
     e8e:	df 93       	push	r29
     e90:	8c 01       	movw	r16, r24
     e92:	eb 01       	movw	r28, r22
     e94:	8b 81       	ldd	r24, Y+3	; 0x03
     e96:	81 ff       	sbrs	r24, 1
     e98:	1b c0       	rjmp	.+54     	; 0xed0 <fputc+0x48>
     e9a:	82 ff       	sbrs	r24, 2
     e9c:	0d c0       	rjmp	.+26     	; 0xeb8 <fputc+0x30>
     e9e:	2e 81       	ldd	r18, Y+6	; 0x06
     ea0:	3f 81       	ldd	r19, Y+7	; 0x07
     ea2:	8c 81       	ldd	r24, Y+4	; 0x04
     ea4:	9d 81       	ldd	r25, Y+5	; 0x05
     ea6:	28 17       	cp	r18, r24
     ea8:	39 07       	cpc	r19, r25
     eaa:	64 f4       	brge	.+24     	; 0xec4 <fputc+0x3c>
     eac:	e8 81       	ld	r30, Y
     eae:	f9 81       	ldd	r31, Y+1	; 0x01
     eb0:	01 93       	st	Z+, r16
     eb2:	f9 83       	std	Y+1, r31	; 0x01
     eb4:	e8 83       	st	Y, r30
     eb6:	06 c0       	rjmp	.+12     	; 0xec4 <fputc+0x3c>
     eb8:	e8 85       	ldd	r30, Y+8	; 0x08
     eba:	f9 85       	ldd	r31, Y+9	; 0x09
     ebc:	80 2f       	mov	r24, r16
     ebe:	09 95       	icall
     ec0:	00 97       	sbiw	r24, 0x00	; 0
     ec2:	31 f4       	brne	.+12     	; 0xed0 <fputc+0x48>
     ec4:	8e 81       	ldd	r24, Y+6	; 0x06
     ec6:	9f 81       	ldd	r25, Y+7	; 0x07
     ec8:	01 96       	adiw	r24, 0x01	; 1
     eca:	9f 83       	std	Y+7, r25	; 0x07
     ecc:	8e 83       	std	Y+6, r24	; 0x06
     ece:	02 c0       	rjmp	.+4      	; 0xed4 <fputc+0x4c>
     ed0:	0f ef       	ldi	r16, 0xFF	; 255
     ed2:	1f ef       	ldi	r17, 0xFF	; 255
     ed4:	c8 01       	movw	r24, r16
     ed6:	df 91       	pop	r29
     ed8:	cf 91       	pop	r28
     eda:	1f 91       	pop	r17
     edc:	0f 91       	pop	r16
     ede:	08 95       	ret

00000ee0 <__ultoa_invert>:
     ee0:	fa 01       	movw	r30, r20
     ee2:	aa 27       	eor	r26, r26
     ee4:	28 30       	cpi	r18, 0x08	; 8
     ee6:	51 f1       	breq	.+84     	; 0xf3c <__ultoa_invert+0x5c>
     ee8:	20 31       	cpi	r18, 0x10	; 16
     eea:	81 f1       	breq	.+96     	; 0xf4c <__ultoa_invert+0x6c>
     eec:	e8 94       	clt
     eee:	6f 93       	push	r22
     ef0:	6e 7f       	andi	r22, 0xFE	; 254
     ef2:	6e 5f       	subi	r22, 0xFE	; 254
     ef4:	7f 4f       	sbci	r23, 0xFF	; 255
     ef6:	8f 4f       	sbci	r24, 0xFF	; 255
     ef8:	9f 4f       	sbci	r25, 0xFF	; 255
     efa:	af 4f       	sbci	r26, 0xFF	; 255
     efc:	b1 e0       	ldi	r27, 0x01	; 1
     efe:	3e d0       	rcall	.+124    	; 0xf7c <__ultoa_invert+0x9c>
     f00:	b4 e0       	ldi	r27, 0x04	; 4
     f02:	3c d0       	rcall	.+120    	; 0xf7c <__ultoa_invert+0x9c>
     f04:	67 0f       	add	r22, r23
     f06:	78 1f       	adc	r23, r24
     f08:	89 1f       	adc	r24, r25
     f0a:	9a 1f       	adc	r25, r26
     f0c:	a1 1d       	adc	r26, r1
     f0e:	68 0f       	add	r22, r24
     f10:	79 1f       	adc	r23, r25
     f12:	8a 1f       	adc	r24, r26
     f14:	91 1d       	adc	r25, r1
     f16:	a1 1d       	adc	r26, r1
     f18:	6a 0f       	add	r22, r26
     f1a:	71 1d       	adc	r23, r1
     f1c:	81 1d       	adc	r24, r1
     f1e:	91 1d       	adc	r25, r1
     f20:	a1 1d       	adc	r26, r1
     f22:	20 d0       	rcall	.+64     	; 0xf64 <__ultoa_invert+0x84>
     f24:	09 f4       	brne	.+2      	; 0xf28 <__ultoa_invert+0x48>
     f26:	68 94       	set
     f28:	3f 91       	pop	r19
     f2a:	2a e0       	ldi	r18, 0x0A	; 10
     f2c:	26 9f       	mul	r18, r22
     f2e:	11 24       	eor	r1, r1
     f30:	30 19       	sub	r19, r0
     f32:	30 5d       	subi	r19, 0xD0	; 208
     f34:	31 93       	st	Z+, r19
     f36:	de f6       	brtc	.-74     	; 0xeee <__ultoa_invert+0xe>
     f38:	cf 01       	movw	r24, r30
     f3a:	08 95       	ret
     f3c:	46 2f       	mov	r20, r22
     f3e:	47 70       	andi	r20, 0x07	; 7
     f40:	40 5d       	subi	r20, 0xD0	; 208
     f42:	41 93       	st	Z+, r20
     f44:	b3 e0       	ldi	r27, 0x03	; 3
     f46:	0f d0       	rcall	.+30     	; 0xf66 <__ultoa_invert+0x86>
     f48:	c9 f7       	brne	.-14     	; 0xf3c <__ultoa_invert+0x5c>
     f4a:	f6 cf       	rjmp	.-20     	; 0xf38 <__ultoa_invert+0x58>
     f4c:	46 2f       	mov	r20, r22
     f4e:	4f 70       	andi	r20, 0x0F	; 15
     f50:	40 5d       	subi	r20, 0xD0	; 208
     f52:	4a 33       	cpi	r20, 0x3A	; 58
     f54:	18 f0       	brcs	.+6      	; 0xf5c <__ultoa_invert+0x7c>
     f56:	49 5d       	subi	r20, 0xD9	; 217
     f58:	31 fd       	sbrc	r19, 1
     f5a:	40 52       	subi	r20, 0x20	; 32
     f5c:	41 93       	st	Z+, r20
     f5e:	02 d0       	rcall	.+4      	; 0xf64 <__ultoa_invert+0x84>
     f60:	a9 f7       	brne	.-22     	; 0xf4c <__ultoa_invert+0x6c>
     f62:	ea cf       	rjmp	.-44     	; 0xf38 <__ultoa_invert+0x58>
     f64:	b4 e0       	ldi	r27, 0x04	; 4
     f66:	a6 95       	lsr	r26
     f68:	97 95       	ror	r25
     f6a:	87 95       	ror	r24
     f6c:	77 95       	ror	r23
     f6e:	67 95       	ror	r22
     f70:	ba 95       	dec	r27
     f72:	c9 f7       	brne	.-14     	; 0xf66 <__ultoa_invert+0x86>
     f74:	00 97       	sbiw	r24, 0x00	; 0
     f76:	61 05       	cpc	r22, r1
     f78:	71 05       	cpc	r23, r1
     f7a:	08 95       	ret
     f7c:	9b 01       	movw	r18, r22
     f7e:	ac 01       	movw	r20, r24
     f80:	0a 2e       	mov	r0, r26
     f82:	06 94       	lsr	r0
     f84:	57 95       	ror	r21
     f86:	47 95       	ror	r20
     f88:	37 95       	ror	r19
     f8a:	27 95       	ror	r18
     f8c:	ba 95       	dec	r27
     f8e:	c9 f7       	brne	.-14     	; 0xf82 <__ultoa_invert+0xa2>
     f90:	62 0f       	add	r22, r18
     f92:	73 1f       	adc	r23, r19
     f94:	84 1f       	adc	r24, r20
     f96:	95 1f       	adc	r25, r21
     f98:	a0 1d       	adc	r26, r0
     f9a:	08 95       	ret

00000f9c <__prologue_saves__>:
     f9c:	2f 92       	push	r2
     f9e:	3f 92       	push	r3
     fa0:	4f 92       	push	r4
     fa2:	5f 92       	push	r5
     fa4:	6f 92       	push	r6
     fa6:	7f 92       	push	r7
     fa8:	8f 92       	push	r8
     faa:	9f 92       	push	r9
     fac:	af 92       	push	r10
     fae:	bf 92       	push	r11
     fb0:	cf 92       	push	r12
     fb2:	df 92       	push	r13
     fb4:	ef 92       	push	r14
     fb6:	ff 92       	push	r15
     fb8:	0f 93       	push	r16
     fba:	1f 93       	push	r17
     fbc:	cf 93       	push	r28
     fbe:	df 93       	push	r29
     fc0:	cd b7       	in	r28, 0x3d	; 61
     fc2:	de b7       	in	r29, 0x3e	; 62
     fc4:	ca 1b       	sub	r28, r26
     fc6:	db 0b       	sbc	r29, r27
     fc8:	0f b6       	in	r0, 0x3f	; 63
     fca:	f8 94       	cli
     fcc:	de bf       	out	0x3e, r29	; 62
     fce:	0f be       	out	0x3f, r0	; 63
     fd0:	cd bf       	out	0x3d, r28	; 61
     fd2:	09 94       	ijmp

00000fd4 <__epilogue_restores__>:
     fd4:	2a 88       	ldd	r2, Y+18	; 0x12
     fd6:	39 88       	ldd	r3, Y+17	; 0x11
     fd8:	48 88       	ldd	r4, Y+16	; 0x10
     fda:	5f 84       	ldd	r5, Y+15	; 0x0f
     fdc:	6e 84       	ldd	r6, Y+14	; 0x0e
     fde:	7d 84       	ldd	r7, Y+13	; 0x0d
     fe0:	8c 84       	ldd	r8, Y+12	; 0x0c
     fe2:	9b 84       	ldd	r9, Y+11	; 0x0b
     fe4:	aa 84       	ldd	r10, Y+10	; 0x0a
     fe6:	b9 84       	ldd	r11, Y+9	; 0x09
     fe8:	c8 84       	ldd	r12, Y+8	; 0x08
     fea:	df 80       	ldd	r13, Y+7	; 0x07
     fec:	ee 80       	ldd	r14, Y+6	; 0x06
     fee:	fd 80       	ldd	r15, Y+5	; 0x05
     ff0:	0c 81       	ldd	r16, Y+4	; 0x04
     ff2:	1b 81       	ldd	r17, Y+3	; 0x03
     ff4:	aa 81       	ldd	r26, Y+2	; 0x02
     ff6:	b9 81       	ldd	r27, Y+1	; 0x01
     ff8:	ce 0f       	add	r28, r30
     ffa:	d1 1d       	adc	r29, r1
     ffc:	0f b6       	in	r0, 0x3f	; 63
     ffe:	f8 94       	cli
    1000:	de bf       	out	0x3e, r29	; 62
    1002:	0f be       	out	0x3f, r0	; 63
    1004:	cd bf       	out	0x3d, r28	; 61
    1006:	ed 01       	movw	r28, r26
    1008:	08 95       	ret

0000100a <_exit>:
    100a:	f8 94       	cli

0000100c <__stop_program>:
    100c:	ff cf       	rjmp	.-2      	; 0x100c <__stop_program>
